

Microchip MPLAB XC8 Assembler V2.45 build 20230818022343 
                                                                                               Tue Nov 19 15:40:11 2024

Microchip MPLAB XC8 C Compiler v2.45 (Free license) build 20230818022343 Og1 
     1                           	processor	18F87K22
     2                           	fnconf	rparam,??,?,0
     3                           	pagewidth 120
     4                           	opt	flic
     5                           	psect	idataCOMRAM,global,class=CODE,delta=1,noexec
     6                           	psect	nvCOMRAM,global,class=COMRAM,space=1,delta=1,lowdata,noexec
     7                           	psect	smallconst,global,reloc=2,class=SMALLCONST,delta=1,noexec
     8                           	psect	cinit,global,reloc=2,class=CODE,delta=1
     9                           	psect	bssCOMRAM,global,class=COMRAM,space=1,delta=1,lowdata,noexec
    10                           	psect	dataCOMRAM,global,class=COMRAM,space=1,delta=1,lowdata,noexec
    11                           	psect	cstackBANK0,global,class=BANK0,space=1,delta=1,lowdata,noexec
    12                           	psect	cstackCOMRAM,global,class=COMRAM,space=1,delta=1,lowdata,noexec
    13                           	psect	text0,global,reloc=2,class=CODE,delta=1
    14                           	psect	text1,global,reloc=2,class=CODE,delta=1
    15                           	psect	text2,global,reloc=2,class=CODE,delta=1
    16                           	psect	text3,global,reloc=2,class=CODE,delta=1
    17                           	psect	intcode,global,reloc=2,class=CODE,delta=1
    18                           	psect	text5,global,reloc=2,class=CODE,delta=1
    19                           	psect	text6,global,reloc=2,class=CODE,delta=1
    20                           	psect	text7,global,reloc=2,class=CODE,delta=1
    21                           	psect	text8,global,reloc=2,class=CODE,delta=1
    22                           	psect	text9,global,reloc=2,class=CODE,delta=1
    23                           	psect	text10,global,reloc=2,class=CODE,delta=1
    24                           	psect	text11,global,reloc=2,class=CODE,delta=1
    25                           	psect	text12,global,reloc=2,class=CODE,delta=1
    26                           	psect	text13,global,reloc=2,class=CODE,delta=1,group=1
    27                           	psect	text14,global,reloc=2,class=CODE,delta=1
    28                           	psect	text15,global,reloc=2,class=CODE,delta=1
    29                           	psect	text16,global,reloc=2,class=CODE,delta=1
    30                           	psect	text17,global,reloc=2,class=CODE,delta=1,group=1
    31                           	psect	text18,global,reloc=2,class=CODE,delta=1,group=1
    32                           	psect	text19,global,reloc=2,class=CODE,delta=1
    33                           	psect	text20,global,reloc=2,class=CODE,delta=1
    34                           	psect	text21,global,reloc=2,class=CODE,delta=1
    35                           	psect	text22,global,reloc=2,class=CODE,delta=1
    36                           	psect	text23,global,reloc=2,class=CODE,delta=1
    37                           	psect	text24,global,reloc=2,class=CODE,delta=1
    38                           	psect	text25,global,reloc=2,class=CODE,delta=1
    39                           	psect	text26,global,reloc=2,class=CODE,delta=1
    40                           	psect	text27,global,reloc=2,class=CODE,delta=1
    41                           	psect	text28,global,reloc=2,class=CODE,delta=1
    42                           	psect	text29,global,reloc=2,class=CODE,delta=1
    43                           	psect	text30,global,reloc=2,class=CODE,delta=1
    44                           	psect	text31,global,reloc=2,class=CODE,delta=1
    45                           	psect	text32,global,reloc=2,class=CODE,delta=1
    46                           	psect	text33,global,reloc=2,class=CODE,delta=1
    47                           	psect	text34,global,reloc=2,class=CODE,delta=1
    48                           	psect	text35,global,reloc=2,class=CODE,delta=1
    49                           	psect	intsave_regs,global,class=BIGRAM,space=1,delta=1,noexec
    50                           	psect	text36,global,reloc=2,class=CODE,delta=1
    51                           	psect	rparam,global,class=COMRAM,space=1,delta=1,noexec
    52                           	psect	temp,global,ovrld,common,class=COMRAM,space=1,delta=1
    53                           	psect	idloc,global,abs,ovrld,class=IDLOC,space=5,delta=1,noexec
    54                           	psect	config,global,abs,ovrld,class=CONFIG,space=4,delta=1,noexec
    55                           	dabs	1,0x603,1,_STKPTR_T6
    56                           	dabs	1,0x503,1,_STKPTR_T5
    57                           	dabs	1,0x403,1,_STKPTR_T4
    58                           	dabs	1,0x303,1,_STKPTR_T3
    59                           	dabs	1,0x203,1,_STKPTR_T2
    60                           	dabs	1,0x103,1,_STKPTR_T1
    61                           	dabs	1,0x60,1,_W_TEMPORAIRE
    62                           	dabs	1,0x100,66,_contexte1
    63                           	dabs	1,0x69,6,_queue
    64                           	dabs	1,0x71,2,_Tick_Count
    65                           	dabs	1,0x80,1,_RXTX_libre
    66                           	dabs	1,0x7F,1,_n_octet_badge
    67                           	dabs	1,0x74,1,_batterie
    68                           	dabs	1,0x73,1,_vitesse
    69                           	dabs	1,0x70,1,_pointeur_de_tache
    70                           	dabs	1,0x6F,1,_tache_active
    71                           	dabs	1,0x68,1,_TP_y
    72                           	dabs	1,0x67,1,_TP_x
    73                           	dabs	1,0x66,1,_TP_appui
    74                           	dabs	1,0x65,1,_DEMARRAGE
    75                           	dabs	1,0x64,1,_FSR0L_TEMPORAIRE
    76                           	dabs	1,0x63,1,_FSR0H_TEMPORAIRE
    77                           	dabs	1,0x62,1,_BSR_TEMPORAIRE
    78                           	dabs	1,0x61,1,_STATUS_TEMPORAIRE
    79                           	dabs	1,0x75,10,_badge
    80                           	dabs	1,0x200,66,_contexte2
    81                           	dabs	1,0x300,66,_contexte3
    82                           	dabs	1,0x400,66,_contexte4
    83                           	dabs	1,0x500,66,_contexte5
    84                           	dabs	1,0x600,66,_contexte6
    85   000000                     
    86                           ; Generated 18/08/2023 GMT
    87                           ; 
    88                           ; Copyright © 2023, Microchip Technology Inc. and its subsidiaries ("Microchip")
    89                           ; All rights reserved.
    90                           ; 
    91                           ; This software is developed by Microchip Technology Inc. and its subsidiaries ("Microch
      +                          ip").
    92                           ; 
    93                           ; Redistribution and use in source and binary forms, with or without modification, are
    94                           ; permitted provided that the following conditions are met:
    95                           ; 
    96                           ;     1. Redistributions of source code must retain the above copyright notice, this lis
      +                          t of
    97                           ;        conditions and the following disclaimer.
    98                           ; 
    99                           ;     2. Redistributions in binary form must reproduce the above copyright notice, this 
      +                          list
   100                           ;        of conditions and the following disclaimer in the documentation and/or other
   101                           ;        materials provided with the distribution. Publication is not required when
   102                           ;        this file is used in an embedded application.
   103                           ; 
   104                           ;     3. Microchip's name may not be used to endorse or promote products derived from th
      +                          is
   105                           ;        software without specific prior written permission.
   106                           ; 
   107                           ; THIS SOFTWARE IS PROVIDED BY MICROCHIP "AS IS" AND ANY EXPRESS OR IMPLIED WARRANTIES,
   108                           ; INCLUDING, BUT NOT LIMITED TO, THE IMPLIED WARRANTIES OF MERCHANTABILITY AND FITNESS F
      +                          OR
   109                           ; PURPOSE ARE DISCLAIMED.  IN NO EVENT SHALL MICROCHIP BE LIABLE FOR ANY DIRECT, INDIREC
      +                          T,
   110                           ; INCIDENTAL, SPECIAL, EXEMPLARY, OR CONSEQUENTIAL DAMAGES (INCLUDING BUT NOT LIMITED TO
   111                           ; PROCUREMENT OF SUBSTITUTE GOODS OR SERVICES; LOSS OF USE, DATA OR PROFITS; OR BUSINESS
   112                           ; INTERRUPTION) HOWSOEVER CAUSED AND ON ANY THEORY OF LIABILITY, WHETHER IN CONTRACT, ST
      +                          RICT
   113                           ; LIABILITY, OR TORT (INCLUDING NEGLIGENCE OR OTHERWISE) ARISING IN ANY WAY OUT OF THE U
      +                          SE OF
   114                           ; THIS SOFTWARE, EVEN IF ADVISED OF THE POSSIBILITY OF SUCH DAMAGE.
   115                           ; 
   116                           ; 
   117                           ; Code-generator required, PIC18F87K22 Definitions
   118                           ; 
   119                           ; SFR Addresses
   120   000000                     
   121                           	psect	idataCOMRAM
   122   00268C                     __pidataCOMRAM:
   123                           	callstack 0
   124                           
   125                           ;initializer for _HANDBRAKE
   126   00268C  01                 	db	1
   127   000000                     _TMR0	set	4054
   128   000000                     _LATH	set	3984
   129   000000                     _LATJbits	set	3985
   130   000000                     _TOSU	set	4095
   131   000000                     _TOSH	set	4094
   132   000000                     _TOSL	set	4093
   133   000000                     _TABLAT	set	4085
   134   000000                     _TBLPTRL	set	4086
   135   000000                     _TBLPTRH	set	4087
   136   000000                     _TBLPTRU	set	4088
   137   000000                     _PRODL	set	4083
   138   000000                     _PRODH	set	4084
   139   000000                     _FSR2L	set	4057
   140   000000                     _FSR2H	set	4058
   141   000000                     _FSR1L	set	4065
   142   000000                     _FSR1H	set	4066
   143   000000                     _STKPTR	set	4092
   144   000000                     _FSR0L	set	4073
   145   000000                     _FSR0H	set	4074
   146   000000                     _BSR	set	4064
   147   000000                     _WREG	set	4072
   148   000000                     _STATUS	set	4056
   149   000000                     _INTCON2bits	set	4081
   150   000000                     _TRISCbits	set	3988
   151   000000                     _T0IF	set	32658
   152                           
   153                           	psect	nvCOMRAM
   154   000048                     __pnvCOMRAM:
   155                           	callstack 0
   156   000048                     _fptr:
   157                           	callstack 0
   158   000048                     	ds	3
   159   00004B                     _puc:
   160                           	callstack 0
   161   00004B                     	ds	2
   162   00004D                     _val_tos:
   163                           	callstack 0
   164   00004D                     	ds	2
   165   000000                     _ANCON1bits	set	3876
   166   000000                     _ANCON0bits	set	3877
   167   000000                     _TXSTA1	set	4012
   168   000000                     _LATJ	set	3985
   169   000000                     _T0CON	set	4053
   170   000000                     _ADCON0bits	set	4034
   171   000000                     _INTCONbits	set	4082
   172   000000                     _T0IE	set	32661
   173   000000                     _ANCON2	set	3875
   174   000000                     _ANCON1	set	3876
   175   000000                     _ANCON0	set	3877
   176   000000                     _MEMCON	set	3878
   177   000000                     _T0CONbits	set	4053
   178   000000                     _PADCFG1bits	set	3923
   179   000000                     _LATCbits	set	3979
   180   000000                     _LATDbits	set	3980
   181   000000                     _LATGbits	set	3983
   182   000000                     _TRISDbits	set	3989
   183   000000                     _TRISGbits	set	3992
   184   000000                     _TRISJ	set	3994
   185   000000                     _TRISH	set	3993
   186   000000                     _PIR1bits	set	3998
   187   000000                     _TXREG1	set	4013
   188   000000                     _ADCON2	set	4032
   189   000000                     _ADCON1	set	4033
   190   000000                     _BAUDCON1	set	3941
   191   000000                     _PORTBbits	set	3969
   192   000000                     _SPBRGH1	set	4052
   193   000000                     _ADRESH	set	4036
   194   000000                     _ADRESL	set	4035
   195   000000                     _ADCON0	set	4034
   196   000000                     _POSTINC0	set	4078
   197   000000                     _POSTINC1	set	4070
   198   000000                     _PCLATH	set	4090
   199   000000                     _PCLATU	set	4091
   200   000000                     _SPBRG1	set	4015
   201   000000                     _PORTDbits	set	3971
   202   000000                     _PORTEbits	set	3972
   203   000000                     _PORTH	set	3975
   204   000000                     _RCSTA1	set	4011
   205   000000                     _TXSTA1bits	set	4012
   206                           
   207                           	psect	smallconst
   208   001000                     __psmallconst:
   209                           	callstack 0
   210   001000  00                 	db	0
   211   001001                     STR_14:
   212   001001  20                 	db	32
   213   001002  41                 	db	65	;'A'
   214   001003  55                 	db	85	;'U'
   215   001004  43                 	db	67	;'C'
   216   001005  55                 	db	85	;'U'
   217   001006  4E                 	db	78	;'N'
   218   001007  20                 	db	32
   219   001008  20                 	db	32
   220   001009  20                 	db	32
   221   00100A  20                 	db	32
   222   00100B  20                 	db	32
   223   00100C  20                 	db	32
   224   00100D  20                 	db	32
   225   00100E  20                 	db	32
   226   00100F  20                 	db	32
   227   001010  20                 	db	32
   228   001011  20                 	db	32
   229   001012  20                 	db	32
   230   001013  20                 	db	32
   231   001014  20                 	db	32
   232   001015  00                 	db	0
   233   001016                     STR_7:
   234   001016  54                 	db	84	;'T'
   235   001017  65                 	db	101	;'e'
   236   001018  6D                 	db	109	;'m'
   237   001019  70                 	db	112	;'p'
   238   00101A  2E                 	db	46
   239   00101B  20                 	db	32
   240   00101C  48                 	db	72	;'H'
   241   00101D  75                 	db	117	;'u'
   242   00101E  69                 	db	105	;'i'
   243   00101F  6C                 	db	108	;'l'
   244   001020  65                 	db	101	;'e'
   245   001021  3A                 	db	58	;':'
   246   001022  00                 	db	0
   247   001023                     STR_15:
   248   001023  58                 	db	88	;'X'
   249   001024  2D                 	db	45
   250   001025  4A                 	db	74	;'J'
   251   001026  6F                 	db	111	;'o'
   252   001027  79                 	db	121	;'y'
   253   001028  73                 	db	115	;'s'
   254   001029  74                 	db	116	;'t'
   255   00102A  69                 	db	105	;'i'
   256   00102B  63                 	db	99	;'c'
   257   00102C  6B                 	db	107	;'k'
   258   00102D  3A                 	db	58	;':'
   259   00102E  00                 	db	0
   260   00102F                     STR_16:
   261   00102F  59                 	db	89	;'Y'
   262   001030  2D                 	db	45
   263   001031  4A                 	db	74	;'J'
   264   001032  6F                 	db	111	;'o'
   265   001033  79                 	db	121	;'y'
   266   001034  73                 	db	115	;'s'
   267   001035  74                 	db	116	;'t'
   268   001036  69                 	db	105	;'i'
   269   001037  63                 	db	99	;'c'
   270   001038  6B                 	db	107	;'k'
   271   001039  3A                 	db	58	;':'
   272   00103A  00                 	db	0
   273   00103B                     STR_6:
   274   00103B  54                 	db	84	;'T'
   275   00103C  65                 	db	101	;'e'
   276   00103D  6D                 	db	109	;'m'
   277   00103E  70                 	db	112	;'p'
   278   00103F  2E                 	db	46
   279   001040  20                 	db	32
   280   001041  45                 	db	69	;'E'
   281   001042  61                 	db	97	;'a'
   282   001043  75                 	db	117	;'u'
   283   001044  3A                 	db	58	;':'
   284   001045  00                 	db	0
   285   001046                     STR_10:
   286   001046  42                 	db	66	;'B'
   287   001047  61                 	db	97	;'a'
   288   001048  74                 	db	116	;'t'
   289   001049  74                 	db	116	;'t'
   290   00104A  65                 	db	101	;'e'
   291   00104B  72                 	db	114	;'r'
   292   00104C  69                 	db	105	;'i'
   293   00104D  65                 	db	101	;'e'
   294   00104E  3A                 	db	58	;':'
   295   00104F  00                 	db	0
   296   001050                     STR_9:
   297   001050  56                 	db	86	;'V'
   298   001051  69                 	db	105	;'i'
   299   001052  74                 	db	116	;'t'
   300   001053  65                 	db	101	;'e'
   301   001054  73                 	db	115	;'s'
   302   001055  73                 	db	115	;'s'
   303   001056  65                 	db	101	;'e'
   304   001057  3A                 	db	58	;':'
   305   001058  00                 	db	0
   306   001059                     STR_1:
   307   001059  4D                 	db	77	;'M'
   308   00105A  61                 	db	97	;'a'
   309   00105B  72                 	db	114	;'r'
   310   00105C  63                 	db	99	;'c'
   311   00105D  68                 	db	104	;'h'
   312   00105E  65                 	db	101	;'e'
   313   00105F  3A                 	db	58	;':'
   314   001060  00                 	db	0
   315   001061                     STR_13:
   316   001061  42                 	db	66	;'B'
   317   001062  61                 	db	97	;'a'
   318   001063  64                 	db	100	;'d'
   319   001064  67                 	db	103	;'g'
   320   001065  65                 	db	101	;'e'
   321   001066  3A                 	db	58	;':'
   322   001067  00                 	db	0
   323   001068                     STR_5:
   324   001068  53                 	db	83	;'S'
   325   001069  69                 	db	105	;'i'
   326   00106A  65                 	db	101	;'e'
   327   00106B  67                 	db	103	;'g'
   328   00106C  65                 	db	101	;'e'
   329   00106D  3A                 	db	58	;':'
   330   00106E  00                 	db	0
   331   00106F                     STR_11:
   332   00106F  28                 	db	40
   333   001070  28                 	db	40
   334   001071  21                 	db	33
   335   001072  29                 	db	41
   336   001073  29                 	db	41
   337   001074  00                 	db	0
   338   001075                     STR_8:
   339   001075  43                 	db	67	;'C'
   340   001076  68                 	db	104	;'h'
   341   001077  6F                 	db	111	;'o'
   342   001078  63                 	db	99	;'c'
   343   001079  3A                 	db	58	;':'
   344   00107A  00                 	db	0
   345   00107B                     STR_18:
   346   00107B  20                 	db	32
   347   00107C  79                 	db	121	;'y'
   348   00107D  3D                 	db	61	;'='
   349   00107E  00                 	db	0
   350   00107F                     STR_4:
   351   00107F  4E                 	db	78	;'N'
   352   001080  20                 	db	32
   353   001081  00                 	db	0
   354   001082                     STR_17:
   355   001082  78                 	db	120	;'x'
   356   001083  3D                 	db	61	;'='
   357   001084  00                 	db	0
   358   001085                     STR_3:
   359   001085  41                 	db	65	;'A'
   360   001086  52                 	db	82	;'R'
   361   001087  00                 	db	0
   362   001088                     STR_2:
   363   001088  41                 	db	65	;'A'
   364   001089  56                 	db	86	;'V'
   365   00108A  00                 	db	0
   366   00108B  00                 	db	0	; dummy byte at the end
   367   000000                     
   368                           ; #config settings
   369                           
   370                           	psect	cinit
   371   002588                     __pcinit:
   372                           	callstack 0
   373   002588                     start_initialization:
   374                           	callstack 0
   375   002588                     __initialization:
   376                           	callstack 0
   377                           
   378                           ; Initialize objects allocated to COMRAM (1 bytes)
   379                           ; load TBLPTR registers with __pidataCOMRAM
   380   002588  0E8C               	movlw	low __pidataCOMRAM
   381   00258A  6EF6               	movwf	tblptrl,c
   382   00258C  0E26               	movlw	high __pidataCOMRAM
   383   00258E  6EF7               	movwf	tblptrh,c
   384   002590  0E00               	movlw	low (__pidataCOMRAM shr (0+16))
   385   002592  6EF8               	movwf	tblptru,c
   386   002594  0009               	tblrd		*+	;fetch initializer
   387   002596  CFF5 F04F          	movff	tablat,__pdataCOMRAM
   388                           
   389                           ; Clear objects allocated to COMRAM (12 bytes)
   390   00259A  EE00  F03C         	lfsr	0,__pbssCOMRAM
   391   00259E  0E0C               	movlw	12
   392   0025A0                     clear_0:
   393   0025A0  6AEE               	clrf	postinc0,c
   394   0025A2  06E8               	decf	wreg,f,c
   395   0025A4  E1FD               	bnz	clear_0
   396   0025A6                     end_of_initialization:
   397                           	callstack 0
   398   0025A6                     __end_of__initialization:
   399                           	callstack 0
   400   0025A6  0100               	movlb	0
   401   0025A8  EF1D  F013         	goto	_main	;jump to C main() function
   402                           
   403                           	psect	bssCOMRAM
   404   00003C                     __pbssCOMRAM:
   405                           	callstack 0
   406   00003C                     _tc:
   407                           	callstack 0
   408   00003C                     	ds	3
   409   00003F                     _WHEELDIRECTION:
   410                           	callstack 0
   411   00003F                     	ds	2
   412   000041                     _FORKLIFT:
   413                           	callstack 0
   414   000041                     	ds	2
   415   000043                     _DRIVE:
   416                           	callstack 0
   417   000043                     	ds	2
   418   000045                     _ENGINE:
   419                           	callstack 0
   420   000045                     	ds	1
   421   000046                     _Val_sem_rxtx:
   422                           	callstack 0
   423   000046                     	ds	1
   424   000047                     _Val_sem_cna:
   425                           	callstack 0
   426   000047                     	ds	1
   427                           
   428                           	psect	dataCOMRAM
   429   00004F                     __pdataCOMRAM:
   430                           	callstack 0
   431   00004F                     _HANDBRAKE:
   432                           	callstack 0
   433   00004F                     	ds	1
   434                           
   435                           	psect	cstackBANK0
   436   000081                     __pcstackBANK0:
   437                           	callstack 0
   438   000081                     ??_Init:
   439   000081                     initialisation_du_systeme@temp:
   440                           	callstack 0
   441                           
   442                           ; 1 bytes @ 0x0
   443   000081                     	ds	2
   444   000083                     Init@sem:
   445                           	callstack 0
   446                           
   447                           ; 1 bytes @ 0x2
   448   000083                     	ds	1
   449   000084                     
   450                           ; 1 bytes @ 0x3
   451                           
   452                           	psect	cstackCOMRAM
   453   000021                     __pcstackCOMRAM:
   454                           	callstack 0
   455   000021                     ??i2_Init:
   456   000021                     ?___awdiv:
   457                           	callstack 0
   458   000021                     ?___awmod:
   459                           	callstack 0
   460   000021                     ?___lwdiv:
   461                           	callstack 0
   462   000021                     lecture_8bit_analogique@ret:
   463                           	callstack 0
   464   000021                     write_d_aff@data:
   465                           	callstack 0
   466   000021                     write_c_aff@command:
   467                           	callstack 0
   468   000021                     check_status_ok@res:
   469                           	callstack 0
   470   000021                     delai_us_char@ucdelai:
   471                           	callstack 0
   472   000021                     tp_delai@itpd:
   473                           	callstack 0
   474   000021                     tache5@a:
   475                           	callstack 0
   476   000021                     stid_delai_us@isdu:
   477                           	callstack 0
   478   000021                     ___awdiv@dividend:
   479                           	callstack 0
   480   000021                     ___awmod@dividend:
   481                           	callstack 0
   482   000021                     ___lwdiv@dividend:
   483                           	callstack 0
   484                           
   485                           ; 2 bytes @ 0x0
   486   000021                     	ds	1
   487   000022                     lecture_8bit_analogique@channel:
   488                           	callstack 0
   489   000022                     wait_status_ok@err:
   490                           	callstack 0
   491                           
   492                           ; 1 bytes @ 0x1
   493   000022                     	ds	1
   494   000023                     ??_tache4:
   495   000023                     wait_status_ok@status:
   496                           	callstack 0
   497   000023                     i2Init@sem:
   498                           	callstack 0
   499   000023                     lecture_normale@stid_id:
   500                           	callstack 0
   501   000023                     ___awdiv@divisor:
   502                           	callstack 0
   503   000023                     ___awmod@divisor:
   504                           	callstack 0
   505   000023                     ___lwdiv@divisor:
   506                           	callstack 0
   507                           
   508                           ; 2 bytes @ 0x2
   509   000023                     	ds	1
   510   000024                     wait_status_ok@res:
   511                           	callstack 0
   512                           
   513                           ; 1 bytes @ 0x3
   514   000024                     	ds	1
   515   000025                     command@cmd:
   516                           	callstack 0
   517   000025                     d1command@cmd:
   518                           	callstack 0
   519   000025                     d2command@d2:
   520                           	callstack 0
   521   000025                     lecture_normale@temps_attente:
   522                           	callstack 0
   523   000025                     ___awdiv@counter:
   524                           	callstack 0
   525   000025                     ___awmod@counter:
   526                           	callstack 0
   527   000025                     ___lwdiv@quotient:
   528                           	callstack 0
   529                           
   530                           ; 2 bytes @ 0x4
   531   000025                     	ds	1
   532   000026                     d1command@d1:
   533                           	callstack 0
   534   000026                     d2command@cmd:
   535                           	callstack 0
   536   000026                     lecture_normale@n_octet:
   537                           	callstack 0
   538   000026                     ___awdiv@sign:
   539                           	callstack 0
   540   000026                     ___awmod@sign:
   541                           	callstack 0
   542                           
   543                           ; 1 bytes @ 0x5
   544   000026                     	ds	1
   545   000027                     d1command@res:
   546                           	callstack 0
   547   000027                     d2command@d1:
   548                           	callstack 0
   549   000027                     lecture_normale@n_bit:
   550                           	callstack 0
   551   000027                     ___lwdiv@counter:
   552                           	callstack 0
   553   000027                     ___awdiv@quotient:
   554                           	callstack 0
   555                           
   556                           ; 2 bytes @ 0x6
   557   000027                     	ds	1
   558   000028                     ??_tache2:
   559   000028                     d2command@res:
   560                           	callstack 0
   561   000028                     draw_char@dccar:
   562                           	callstack 0
   563   000028                     draw_string@tableau:
   564                           	callstack 0
   565   000028                     draw_hex8@octet:
   566                           	callstack 0
   567   000028                     lecture_normale@octet:
   568                           	callstack 0
   569                           
   570                           ; 1 bytes @ 0x7
   571   000028                     	ds	1
   572   000029                     tache6@n:
   573                           	callstack 0
   574   000029                     initialisation_afficheur@error_count:
   575                           	callstack 0
   576   000029                     draw_hex8@c:
   577                           	callstack 0
   578   000029                     goto_lico@colonne:
   579                           	callstack 0
   580   000029                     plot1@y:
   581                           	callstack 0
   582   000029                     clear_text@add:
   583                           	callstack 0
   584   000029                     clear_graphics@add:
   585                           	callstack 0
   586                           
   587                           ; 2 bytes @ 0x8
   588   000029                     	ds	1
   589   00002A                     ??_goto_lico:
   590   00002A                     ??_plot1:
   591   00002A                     tache2@ix:
   592                           	callstack 0
   593                           
   594                           ; 2 bytes @ 0x9
   595   00002A                     	ds	2
   596   00002C                     goto_lico@ligne:
   597                           	callstack 0
   598   00002C                     tache2@iy:
   599                           	callstack 0
   600   00002C                     plot1@add:
   601                           	callstack 0
   602                           
   603                           ; 2 bytes @ 0xB
   604   00002C                     	ds	1
   605   00002D                     goto_lico@adr:
   606                           	callstack 0
   607                           
   608                           ; 2 bytes @ 0xC
   609   00002D                     	ds	1
   610   00002E                     tache2@hx:
   611                           	callstack 0
   612   00002E                     plot1@x:
   613                           	callstack 0
   614                           
   615                           ; 1 bytes @ 0xD
   616   00002E                     	ds	1
   617   00002F                     tache1@i:
   618                           	callstack 0
   619   00002F                     tache2@lx:
   620                           	callstack 0
   621                           
   622                           ; 1 bytes @ 0xE
   623   00002F                     	ds	1
   624   000030                     tache2@hy:
   625                           	callstack 0
   626                           
   627                           ; 1 bytes @ 0xF
   628   000030                     	ds	1
   629   000031                     tache2@ly:
   630                           	callstack 0
   631                           
   632                           ; 1 bytes @ 0x10
   633   000031                     	ds	1
   634   000032                     ??_fonction_d_interruption:
   635                           
   636                           ; 1 bytes @ 0x11
   637   000032                     	ds	10
   638                           
   639 ;;
   640 ;;Main: autosize = 0, tempsize = 0, incstack = 0, save=0
   641 ;;
   642 ;; *************** function _main *****************
   643 ;; Defined at:
   644 ;;		line 6 in file "main.c"
   645 ;; Parameters:    Size  Location     Type
   646 ;;		None
   647 ;; Auto vars:     Size  Location     Type
   648 ;;		None
   649 ;; Return value:  Size  Location     Type
   650 ;;                  1    wreg      void 
   651 ;; Registers used:
   652 ;;		wreg, fsr2l, fsr2h, status,2, status,0, cstack
   653 ;; Tracked objects:
   654 ;;		On entry : 0/0
   655 ;;		On exit  : 0/0
   656 ;;		Unchanged: 0/0
   657 ;; Data sizes:     COMRAM   BANK0   BANK1   BANK2   BANK3   BANK4   BANK5   BANK6   BANK7   BANK8   BANK9  BANK10  BANK1
      +1  BANK12  BANK13  BANK14  BANK15
   658 ;;      Params:         0       0       0       0       0       0       0       0       0       0       0       0       
      +0       0       0       0       0
   659 ;;      Locals:         0       0       0       0       0       0       0       0       0       0       0       0       
      +0       0       0       0       0
   660 ;;      Temps:          0       0       0       0       0       0       0       0       0       0       0       0       
      +0       0       0       0       0
   661 ;;      Totals:         0       0       0       0       0       0       0       0       0       0       0       0       
      +0       0       0       0       0
   662 ;;Total ram usage:        0 bytes
   663 ;; Hardware stack levels required when called: 7
   664 ;; This function calls:
   665 ;;		_Init
   666 ;;		_initialisation_des_ports
   667 ;;		_initialisation_du_systeme
   668 ;; This function is called by:
   669 ;;		Startup code after reset
   670 ;; This function uses a non-reentrant model
   671 ;;
   672                           
   673                           	psect	text0
   674   00263A                     __ptext0:
   675                           	callstack 0
   676   00263A                     _main:
   677                           	callstack 24
   678   00263A                     
   679                           ;main.c: 8:     initialisation_des_ports();
   680   00263A  EC91  F012         	call	_initialisation_des_ports	;wreg free
   681   00263E                     
   682                           ;main.c: 9:     initialisation_du_systeme();
   683   00263E  ECDD  F009         	call	_initialisation_du_systeme	;wreg free
   684   002642                     
   685                           ;main.c: 10:     Init(1);
   686   002642  0E01               	movlw	1
   687   002644  ECD5  F011         	call	_Init
   688   002648                     
   689                           ;main.c: 13:     T0CONbits.TMR0ON=1;
   690   002648  8ED5               	bsf	213,7,c	;volatile
   691   00264A                     
   692                           ;main.c: 14:     T0IF=1;
   693   00264A  84F2               	bsf	4082,2,c	;volatile
   694   00264C                     
   695                           ;main.c: 15:     (INTCONbits.GIE = 1);
   696   00264C  8EF2               	bsf	242,7,c	;volatile
   697   00264E                     l5205:
   698                           
   699                           ;main.c: 19:         __nop();
   700   00264E  0000               	nop	
   701   002650  EF27  F013         	goto	l5205
   702   002654  EFAB  F001         	goto	start
   703   002658                     __end_of_main:
   704                           	callstack 0
   705                           
   706 ;; *************** function _initialisation_du_systeme *****************
   707 ;; Defined at:
   708 ;;		line 131 in file "systeme.c"
   709 ;; Parameters:    Size  Location     Type
   710 ;;		None
   711 ;; Auto vars:     Size  Location     Type
   712 ;;  temp            1    0[BANK0 ] unsigned char 
   713 ;; Return value:  Size  Location     Type
   714 ;;                  1    wreg      void 
   715 ;; Registers used:
   716 ;;		wreg, fsr2l, fsr2h, status,2, status,0
   717 ;; Tracked objects:
   718 ;;		On entry : 0/0
   719 ;;		On exit  : 0/0
   720 ;;		Unchanged: 0/0
   721 ;; Data sizes:     COMRAM   BANK0   BANK1   BANK2   BANK3   BANK4   BANK5   BANK6   BANK7   BANK8   BANK9  BANK10  BANK1
      +1  BANK12  BANK13  BANK14  BANK15
   722 ;;      Params:         0       0       0       0       0       0       0       0       0       0       0       0       
      +0       0       0       0       0
   723 ;;      Locals:         0       1       0       0       0       0       0       0       0       0       0       0       
      +0       0       0       0       0
   724 ;;      Temps:          0       0       0       0       0       0       0       0       0       0       0       0       
      +0       0       0       0       0
   725 ;;      Totals:         0       1       0       0       0       0       0       0       0       0       0       0       
      +0       0       0       0       0
   726 ;;Total ram usage:        1 bytes
   727 ;; Hardware stack levels used: 1
   728 ;; Hardware stack levels required when called: 6
   729 ;; This function calls:
   730 ;;		Nothing
   731 ;; This function is called by:
   732 ;;		_main
   733 ;; This function uses a non-reentrant model
   734 ;;
   735                           
   736                           	psect	text1
   737   0013BA                     __ptext1:
   738                           	callstack 0
   739   0013BA                     _initialisation_du_systeme:
   740                           	callstack 24
   741   0013BA                     
   742                           ;systeme.c: 133:     unsigned char temp;;systeme.c: 135:     DEMARRAGE=1;
   743   0013BA  0E01               	movlw	1
   744   0013BC  0100               	movlb	0	; () banked
   745   0013BE  6F65               	movwf	101,b
   746                           
   747                           ;systeme.c: 138:     queue[0]=1;
   748   0013C0  0E01               	movlw	1
   749   0013C2  6F69               	movwf	105,b
   750                           
   751                           ;systeme.c: 139:     queue[1]=2;
   752   0013C4  0E02               	movlw	2
   753   0013C6  6F6A               	movwf	106,b
   754                           
   755                           ;systeme.c: 140:     queue[2]=3;
   756   0013C8  0E03               	movlw	3
   757   0013CA  6F6B               	movwf	107,b
   758                           
   759                           ;systeme.c: 141:     queue[3]=4;
   760   0013CC  0E04               	movlw	4
   761   0013CE  6F6C               	movwf	108,b
   762                           
   763                           ;systeme.c: 142:     queue[4]=5;
   764   0013D0  0E05               	movlw	5
   765   0013D2  6F6D               	movwf	109,b
   766                           
   767                           ;systeme.c: 143:     queue[5]=6;
   768   0013D4  0E06               	movlw	6
   769   0013D6  6F6E               	movwf	110,b
   770                           
   771                           ;systeme.c: 145:     pointeur_de_tache=6 -1;
   772   0013D8  0E05               	movlw	5
   773   0013DA  6F70               	movwf	112,b
   774   0013DC                     
   775                           ; BSR set to: 0
   776                           ;systeme.c: 146:     tache_active=queue[pointeur_de_tache];
   777   0013DC  0E69               	movlw	105
   778   0013DE  2570               	addwf	112,w,b
   779   0013E0  6ED9               	movwf	fsr2l,c
   780   0013E2  6ADA               	clrf	fsr2h,c
   781   0013E4  0E00               	movlw	0
   782   0013E6  22DA               	addwfc	fsr2h,f,c
   783   0013E8  50DF               	movf	indf2,w,c
   784   0013EA  6F6F               	movwf	111,b
   785   0013EC                     
   786                           ; BSR set to: 0
   787                           ;systeme.c: 151:     temp=STKPTR;
   788   0013EC  CFFC F081          	movff	stkptr,initialisation_du_systeme@temp	;volatile
   789   0013F0                     
   790                           ; BSR set to: 0
   791                           ;systeme.c: 155:     STKPTR=2;fptr=&tache1; val_tos=(unsigned short int) fptr; puc=(unsi
      +                          gned char *)&val_tos; TOSL=*puc;puc++; TOSH=*puc;puc++; TOSU=*puc;
   792   0013F0  0E02               	movlw	2
   793   0013F2  6EFC               	movwf	252,c	;volatile
   794   0013F4                     
   795                           ; BSR set to: 0
   796   0013F4  0E8C               	movlw	low _tache1
   797   0013F6  6E48               	movwf	_fptr^0,c
   798   0013F8  0E10               	movlw	high _tache1
   799   0013FA  6E49               	movwf	(_fptr+1)^0,c
   800   0013FC  0E00               	movlw	low (_tache1 shr (0+16))
   801   0013FE  6E4A               	movwf	(_fptr+2)^0,c
   802   001400                     
   803                           ; BSR set to: 0
   804   001400  C048  F04D         	movff	_fptr,_val_tos
   805   001404  C049  F04E         	movff	_fptr+1,_val_tos+1
   806   001408                     
   807                           ; BSR set to: 0
   808   001408  0E4D               	movlw	low _val_tos
   809   00140A  6E4B               	movwf	_puc^0,c
   810   00140C  6A4C               	clrf	(_puc+1)^0,c
   811   00140E                     
   812                           ; BSR set to: 0
   813   00140E  C04B  FFD9         	movff	_puc,fsr2l
   814   001412  C04C  FFDA         	movff	_puc+1,fsr2h
   815   001416  50DF               	movf	indf2,w,c
   816   001418  6EFD               	movwf	253,c	;volatile
   817   00141A                     
   818                           ; BSR set to: 0
   819   00141A  4A4B               	infsnz	_puc^0,f,c
   820   00141C  2A4C               	incf	(_puc+1)^0,f,c
   821   00141E                     
   822                           ; BSR set to: 0
   823   00141E  C04B  FFD9         	movff	_puc,fsr2l
   824   001422  C04C  FFDA         	movff	_puc+1,fsr2h
   825   001426  50DF               	movf	indf2,w,c
   826   001428  6EFE               	movwf	254,c	;volatile
   827   00142A                     
   828                           ; BSR set to: 0
   829   00142A  4A4B               	infsnz	_puc^0,f,c
   830   00142C  2A4C               	incf	(_puc+1)^0,f,c
   831   00142E                     
   832                           ; BSR set to: 0
   833   00142E  C04B  FFD9         	movff	_puc,fsr2l
   834   001432  C04C  FFDA         	movff	_puc+1,fsr2h
   835   001436  50DF               	movf	indf2,w,c
   836   001438  6EFF               	movwf	255,c	;volatile
   837   00143A                     
   838                           ; BSR set to: 0
   839                           ;systeme.c: 156:     STKPTR=7;fptr=&tache2; val_tos=(unsigned short int) fptr; puc=(unsi
      +                          gned char *)&val_tos; TOSL=*puc;puc++; TOSH=*puc;puc++; TOSU=*puc;
   840   00143A  0E07               	movlw	7
   841   00143C  6EFC               	movwf	252,c	;volatile
   842   00143E  0E78               	movlw	low _tache2
   843   001440  6E48               	movwf	_fptr^0,c
   844   001442  0E19               	movlw	high _tache2
   845   001444  6E49               	movwf	(_fptr+1)^0,c
   846   001446  0E00               	movlw	low (_tache2 shr (0+16))
   847   001448  6E4A               	movwf	(_fptr+2)^0,c
   848   00144A                     
   849                           ; BSR set to: 0
   850   00144A  C048  F04D         	movff	_fptr,_val_tos
   851   00144E  C049  F04E         	movff	_fptr+1,_val_tos+1
   852   001452  0E4D               	movlw	low _val_tos
   853   001454  6E4B               	movwf	_puc^0,c
   854   001456  6A4C               	clrf	(_puc+1)^0,c
   855   001458                     
   856                           ; BSR set to: 0
   857   001458  C04B  FFD9         	movff	_puc,fsr2l
   858   00145C  C04C  FFDA         	movff	_puc+1,fsr2h
   859   001460  50DF               	movf	indf2,w,c
   860   001462  6EFD               	movwf	253,c	;volatile
   861   001464                     
   862                           ; BSR set to: 0
   863   001464  4A4B               	infsnz	_puc^0,f,c
   864   001466  2A4C               	incf	(_puc+1)^0,f,c
   865   001468                     
   866                           ; BSR set to: 0
   867   001468  C04B  FFD9         	movff	_puc,fsr2l
   868   00146C  C04C  FFDA         	movff	_puc+1,fsr2h
   869   001470  50DF               	movf	indf2,w,c
   870   001472  6EFE               	movwf	254,c	;volatile
   871   001474                     
   872                           ; BSR set to: 0
   873   001474  4A4B               	infsnz	_puc^0,f,c
   874   001476  2A4C               	incf	(_puc+1)^0,f,c
   875   001478                     
   876                           ; BSR set to: 0
   877   001478  C04B  FFD9         	movff	_puc,fsr2l
   878   00147C  C04C  FFDA         	movff	_puc+1,fsr2h
   879   001480  50DF               	movf	indf2,w,c
   880   001482  6EFF               	movwf	255,c	;volatile
   881   001484                     
   882                           ; BSR set to: 0
   883                           ;systeme.c: 157:     STKPTR=12;fptr=&tache3; val_tos=(unsigned short int) fptr; puc=(uns
      +                          igned char *)&val_tos; TOSL=*puc;puc++; TOSH=*puc;puc++; TOSU=*puc;
   884   001484  0E0C               	movlw	12
   885   001486  6EFC               	movwf	252,c	;volatile
   886   001488                     
   887                           ; BSR set to: 0
   888   001488  0E10               	movlw	low _tache3
   889   00148A  6E48               	movwf	_fptr^0,c
   890   00148C  0E18               	movlw	high _tache3
   891   00148E  6E49               	movwf	(_fptr+1)^0,c
   892   001490  0E00               	movlw	low (_tache3 shr (0+16))
   893   001492  6E4A               	movwf	(_fptr+2)^0,c
   894   001494                     
   895                           ; BSR set to: 0
   896   001494  C048  F04D         	movff	_fptr,_val_tos
   897   001498  C049  F04E         	movff	_fptr+1,_val_tos+1
   898   00149C                     
   899                           ; BSR set to: 0
   900   00149C  0E4D               	movlw	low _val_tos
   901   00149E  6E4B               	movwf	_puc^0,c
   902   0014A0  6A4C               	clrf	(_puc+1)^0,c
   903   0014A2                     
   904                           ; BSR set to: 0
   905   0014A2  C04B  FFD9         	movff	_puc,fsr2l
   906   0014A6  C04C  FFDA         	movff	_puc+1,fsr2h
   907   0014AA  50DF               	movf	indf2,w,c
   908   0014AC  6EFD               	movwf	253,c	;volatile
   909   0014AE                     
   910                           ; BSR set to: 0
   911   0014AE  4A4B               	infsnz	_puc^0,f,c
   912   0014B0  2A4C               	incf	(_puc+1)^0,f,c
   913   0014B2                     
   914                           ; BSR set to: 0
   915   0014B2  C04B  FFD9         	movff	_puc,fsr2l
   916   0014B6  C04C  FFDA         	movff	_puc+1,fsr2h
   917   0014BA  50DF               	movf	indf2,w,c
   918   0014BC  6EFE               	movwf	254,c	;volatile
   919   0014BE                     
   920                           ; BSR set to: 0
   921   0014BE  4A4B               	infsnz	_puc^0,f,c
   922   0014C0  2A4C               	incf	(_puc+1)^0,f,c
   923   0014C2                     
   924                           ; BSR set to: 0
   925   0014C2  C04B  FFD9         	movff	_puc,fsr2l
   926   0014C6  C04C  FFDA         	movff	_puc+1,fsr2h
   927   0014CA  50DF               	movf	indf2,w,c
   928   0014CC  6EFF               	movwf	255,c	;volatile
   929   0014CE                     
   930                           ; BSR set to: 0
   931                           ;systeme.c: 158:     STKPTR=17;fptr=&tache4; val_tos=(unsigned short int) fptr; puc=(uns
      +                          igned char *)&val_tos; TOSL=*puc;puc++; TOSH=*puc;puc++; TOSU=*puc;
   932   0014CE  0E11               	movlw	17
   933   0014D0  6EFC               	movwf	252,c	;volatile
   934   0014D2  0EAE               	movlw	low _tache4
   935   0014D4  6E48               	movwf	_fptr^0,c
   936   0014D6  0E1A               	movlw	high _tache4
   937   0014D8  6E49               	movwf	(_fptr+1)^0,c
   938   0014DA  0E00               	movlw	low (_tache4 shr (0+16))
   939   0014DC  6E4A               	movwf	(_fptr+2)^0,c
   940   0014DE                     
   941                           ; BSR set to: 0
   942   0014DE  C048  F04D         	movff	_fptr,_val_tos
   943   0014E2  C049  F04E         	movff	_fptr+1,_val_tos+1
   944   0014E6  0E4D               	movlw	low _val_tos
   945   0014E8  6E4B               	movwf	_puc^0,c
   946   0014EA  6A4C               	clrf	(_puc+1)^0,c
   947   0014EC                     
   948                           ; BSR set to: 0
   949   0014EC  C04B  FFD9         	movff	_puc,fsr2l
   950   0014F0  C04C  FFDA         	movff	_puc+1,fsr2h
   951   0014F4  50DF               	movf	indf2,w,c
   952   0014F6  6EFD               	movwf	253,c	;volatile
   953   0014F8                     
   954                           ; BSR set to: 0
   955   0014F8  4A4B               	infsnz	_puc^0,f,c
   956   0014FA  2A4C               	incf	(_puc+1)^0,f,c
   957   0014FC                     
   958                           ; BSR set to: 0
   959   0014FC  C04B  FFD9         	movff	_puc,fsr2l
   960   001500  C04C  FFDA         	movff	_puc+1,fsr2h
   961   001504  50DF               	movf	indf2,w,c
   962   001506  6EFE               	movwf	254,c	;volatile
   963   001508                     
   964                           ; BSR set to: 0
   965   001508  4A4B               	infsnz	_puc^0,f,c
   966   00150A  2A4C               	incf	(_puc+1)^0,f,c
   967   00150C                     
   968                           ; BSR set to: 0
   969   00150C  C04B  FFD9         	movff	_puc,fsr2l
   970   001510  C04C  FFDA         	movff	_puc+1,fsr2h
   971   001514  50DF               	movf	indf2,w,c
   972   001516  6EFF               	movwf	255,c	;volatile
   973   001518                     
   974                           ; BSR set to: 0
   975                           ;systeme.c: 159:     STKPTR=22;fptr=&tache5; val_tos=(unsigned short int) fptr; puc=(uns
      +                          igned char *)&val_tos; TOSL=*puc;puc++; TOSH=*puc;puc++; TOSU=*puc;
   976   001518  0E16               	movlw	22
   977   00151A  6EFC               	movwf	252,c	;volatile
   978   00151C                     
   979                           ; BSR set to: 0
   980   00151C  0EE6               	movlw	low _tache5
   981   00151E  6E48               	movwf	_fptr^0,c
   982   001520  0E15               	movlw	high _tache5
   983   001522  6E49               	movwf	(_fptr+1)^0,c
   984   001524  0E00               	movlw	low (_tache5 shr (0+16))
   985   001526  6E4A               	movwf	(_fptr+2)^0,c
   986   001528                     
   987                           ; BSR set to: 0
   988   001528  C048  F04D         	movff	_fptr,_val_tos
   989   00152C  C049  F04E         	movff	_fptr+1,_val_tos+1
   990   001530                     
   991                           ; BSR set to: 0
   992   001530  0E4D               	movlw	low _val_tos
   993   001532  6E4B               	movwf	_puc^0,c
   994   001534  6A4C               	clrf	(_puc+1)^0,c
   995   001536                     
   996                           ; BSR set to: 0
   997   001536  C04B  FFD9         	movff	_puc,fsr2l
   998   00153A  C04C  FFDA         	movff	_puc+1,fsr2h
   999   00153E  50DF               	movf	indf2,w,c
  1000   001540  6EFD               	movwf	253,c	;volatile
  1001   001542                     
  1002                           ; BSR set to: 0
  1003   001542  4A4B               	infsnz	_puc^0,f,c
  1004   001544  2A4C               	incf	(_puc+1)^0,f,c
  1005   001546                     
  1006                           ; BSR set to: 0
  1007   001546  C04B  FFD9         	movff	_puc,fsr2l
  1008   00154A  C04C  FFDA         	movff	_puc+1,fsr2h
  1009   00154E  50DF               	movf	indf2,w,c
  1010   001550  6EFE               	movwf	254,c	;volatile
  1011   001552                     
  1012                           ; BSR set to: 0
  1013   001552  4A4B               	infsnz	_puc^0,f,c
  1014   001554  2A4C               	incf	(_puc+1)^0,f,c
  1015   001556                     
  1016                           ; BSR set to: 0
  1017   001556  C04B  FFD9         	movff	_puc,fsr2l
  1018   00155A  C04C  FFDA         	movff	_puc+1,fsr2h
  1019   00155E  50DF               	movf	indf2,w,c
  1020   001560  6EFF               	movwf	255,c	;volatile
  1021   001562                     
  1022                           ; BSR set to: 0
  1023                           ;systeme.c: 160:     STKPTR=27;fptr=&tache6; val_tos=(unsigned short int) fptr; puc=(uns
      +                          igned char *)&val_tos; TOSL=*puc;puc++; TOSH=*puc;puc++; TOSU=*puc;
  1024   001562  0E1B               	movlw	27
  1025   001564  6EFC               	movwf	252,c	;volatile
  1026   001566  0EF0               	movlw	low _tache6
  1027   001568  6E48               	movwf	_fptr^0,c
  1028   00156A  0E23               	movlw	high _tache6
  1029   00156C  6E49               	movwf	(_fptr+1)^0,c
  1030   00156E  0E00               	movlw	low (_tache6 shr (0+16))
  1031   001570  6E4A               	movwf	(_fptr+2)^0,c
  1032   001572                     
  1033                           ; BSR set to: 0
  1034   001572  C048  F04D         	movff	_fptr,_val_tos
  1035   001576  C049  F04E         	movff	_fptr+1,_val_tos+1
  1036   00157A  0E4D               	movlw	low _val_tos
  1037   00157C  6E4B               	movwf	_puc^0,c
  1038   00157E  6A4C               	clrf	(_puc+1)^0,c
  1039   001580                     
  1040                           ; BSR set to: 0
  1041   001580  C04B  FFD9         	movff	_puc,fsr2l
  1042   001584  C04C  FFDA         	movff	_puc+1,fsr2h
  1043   001588  50DF               	movf	indf2,w,c
  1044   00158A  6EFD               	movwf	253,c	;volatile
  1045   00158C                     
  1046                           ; BSR set to: 0
  1047   00158C  4A4B               	infsnz	_puc^0,f,c
  1048   00158E  2A4C               	incf	(_puc+1)^0,f,c
  1049   001590                     
  1050                           ; BSR set to: 0
  1051   001590  C04B  FFD9         	movff	_puc,fsr2l
  1052   001594  C04C  FFDA         	movff	_puc+1,fsr2h
  1053   001598  50DF               	movf	indf2,w,c
  1054   00159A  6EFE               	movwf	254,c	;volatile
  1055   00159C                     
  1056                           ; BSR set to: 0
  1057   00159C  4A4B               	infsnz	_puc^0,f,c
  1058   00159E  2A4C               	incf	(_puc+1)^0,f,c
  1059   0015A0                     
  1060                           ; BSR set to: 0
  1061   0015A0  C04B  FFD9         	movff	_puc,fsr2l
  1062   0015A4  C04C  FFDA         	movff	_puc+1,fsr2h
  1063   0015A8  50DF               	movf	indf2,w,c
  1064   0015AA  6EFF               	movwf	255,c	;volatile
  1065   0015AC                     
  1066                           ; BSR set to: 0
  1067                           ;systeme.c: 162:     STKPTR=temp;
  1068   0015AC  C081  FFFC         	movff	initialisation_du_systeme@temp,stkptr	;volatile
  1069   0015B0                     
  1070                           ; BSR set to: 0
  1071                           ;systeme.c: 165:     STKPTR_T1=2;
  1072   0015B0  0E02               	movlw	2
  1073   0015B2  0101               	movlb	1	; () banked
  1074   0015B4  6F03               	movwf	3,b
  1075   0015B6                     
  1076                           ; BSR set to: 1
  1077                           ;systeme.c: 166:     STKPTR_T2=7;
  1078   0015B6  0E07               	movlw	7
  1079   0015B8  0102               	movlb	2	; () banked
  1080   0015BA  6F03               	movwf	3,b
  1081   0015BC                     
  1082                           ; BSR set to: 2
  1083                           ;systeme.c: 167:     STKPTR_T3=12;
  1084   0015BC  0E0C               	movlw	12
  1085   0015BE  0103               	movlb	3	; () banked
  1086   0015C0  6F03               	movwf	3,b
  1087   0015C2                     
  1088                           ; BSR set to: 3
  1089                           ;systeme.c: 168:     STKPTR_T4=17;
  1090   0015C2  0E11               	movlw	17
  1091   0015C4  0104               	movlb	4	; () banked
  1092   0015C6  6F03               	movwf	3,b
  1093   0015C8                     
  1094                           ; BSR set to: 4
  1095                           ;systeme.c: 169:     STKPTR_T5=22;
  1096   0015C8  0E16               	movlw	22
  1097   0015CA  0105               	movlb	5	; () banked
  1098   0015CC  6F03               	movwf	3,b
  1099   0015CE                     
  1100                           ; BSR set to: 5
  1101                           ;systeme.c: 170:     STKPTR_T6=27;
  1102   0015CE  0E1B               	movlw	27
  1103   0015D0  0106               	movlb	6	; () banked
  1104   0015D2  6F03               	movwf	3,b
  1105   0015D4                     
  1106                           ; BSR set to: 6
  1107                           ;systeme.c: 173:     Tick_Count=0;
  1108   0015D4  0E00               	movlw	0
  1109   0015D6  0100               	movlb	0	; () banked
  1110   0015D8  6F72               	movwf	114,b
  1111   0015DA  0E00               	movlw	0
  1112   0015DC  6F71               	movwf	113,b
  1113   0015DE                     
  1114                           ; BSR set to: 0
  1115                           ;systeme.c: 175:     T0CON=0x01;
  1116   0015DE  0E01               	movlw	1
  1117   0015E0  6ED5               	movwf	213,c	;volatile
  1118   0015E2                     
  1119                           ; BSR set to: 0
  1120                           ;systeme.c: 176:     T0IE=1;
  1121   0015E2  8AF2               	bsf	4082,5,c	;volatile
  1122   0015E4                     
  1123                           ; BSR set to: 0
  1124   0015E4  0012               	return		;funcret
  1125   0015E6                     __end_of_initialisation_du_systeme:
  1126                           	callstack 0
  1127                           
  1128 ;; *************** function _initialisation_des_ports *****************
  1129 ;; Defined at:
  1130 ;;		line 23 in file "main.c"
  1131 ;; Parameters:    Size  Location     Type
  1132 ;;		None
  1133 ;; Auto vars:     Size  Location     Type
  1134 ;;		None
  1135 ;; Return value:  Size  Location     Type
  1136 ;;                  1    wreg      void 
  1137 ;; Registers used:
  1138 ;;		wreg, status,2
  1139 ;; Tracked objects:
  1140 ;;		On entry : 0/0
  1141 ;;		On exit  : 0/0
  1142 ;;		Unchanged: 0/0
  1143 ;; Data sizes:     COMRAM   BANK0   BANK1   BANK2   BANK3   BANK4   BANK5   BANK6   BANK7   BANK8   BANK9  BANK10  BANK1
      +1  BANK12  BANK13  BANK14  BANK15
  1144 ;;      Params:         0       0       0       0       0       0       0       0       0       0       0       0       
      +0       0       0       0       0
  1145 ;;      Locals:         0       0       0       0       0       0       0       0       0       0       0       0       
      +0       0       0       0       0
  1146 ;;      Temps:          0       0       0       0       0       0       0       0       0       0       0       0       
      +0       0       0       0       0
  1147 ;;      Totals:         0       0       0       0       0       0       0       0       0       0       0       0       
      +0       0       0       0       0
  1148 ;;Total ram usage:        0 bytes
  1149 ;; Hardware stack levels used: 1
  1150 ;; Hardware stack levels required when called: 6
  1151 ;; This function calls:
  1152 ;;		Nothing
  1153 ;; This function is called by:
  1154 ;;		_main
  1155 ;; This function uses a non-reentrant model
  1156 ;;
  1157                           
  1158                           	psect	text2
  1159   002522                     __ptext2:
  1160                           	callstack 0
  1161   002522                     _initialisation_des_ports:
  1162                           	callstack 24
  1163   002522                     
  1164                           ;main.c: 26:     MEMCON=0xA0;
  1165   002522  0EA0               	movlw	160
  1166   002524  010F               	movlb	15	; () banked
  1167   002526  6F26               	movwf	38,b	;volatile
  1168                           
  1169                           ;main.c: 29:     ANCON0=0x00;
  1170   002528  0E00               	movlw	0
  1171   00252A  6F25               	movwf	37,b	;volatile
  1172                           
  1173                           ;main.c: 30:     ANCON1=0x00;
  1174   00252C  0E00               	movlw	0
  1175   00252E  6F24               	movwf	36,b	;volatile
  1176                           
  1177                           ;main.c: 31:     ANCON2=0x00;
  1178   002530  0E00               	movlw	0
  1179   002532  6F23               	movwf	35,b	;volatile
  1180   002534                     
  1181                           ; BSR set to: 15
  1182                           ;main.c: 32:     ANCON0bits.ANSEL0=1;
  1183   002534  8125               	bsf	37,0,b	;volatile
  1184   002536                     
  1185                           ; BSR set to: 15
  1186                           ;main.c: 33:     ANCON0bits.ANSEL1=1;
  1187   002536  8325               	bsf	37,1,b	;volatile
  1188   002538                     
  1189                           ; BSR set to: 15
  1190                           ;main.c: 34:     ANCON0bits.ANSEL2=1;
  1191   002538  8525               	bsf	37,2,b	;volatile
  1192   00253A                     
  1193                           ; BSR set to: 15
  1194                           ;main.c: 35:     ANCON0bits.ANSEL3=1;
  1195   00253A  8725               	bsf	37,3,b	;volatile
  1196   00253C                     
  1197                           ; BSR set to: 15
  1198                           ;main.c: 36:     ANCON1bits.ANSEL10=1;
  1199   00253C  8524               	bsf	36,2,b	;volatile
  1200   00253E                     
  1201                           ; BSR set to: 15
  1202                           ;main.c: 37:     ANCON1bits.ANSEL11=1;
  1203   00253E  8724               	bsf	36,3,b	;volatile
  1204   002540                     
  1205                           ; BSR set to: 15
  1206                           ;main.c: 41:     LATCbits.LATC2=1;
  1207   002540  848B               	bsf	139,2,c	;volatile
  1208   002542                     
  1209                           ; BSR set to: 15
  1210                           ;main.c: 42:     LATCbits.LATC1=1;
  1211   002542  828B               	bsf	139,1,c	;volatile
  1212   002544                     
  1213                           ; BSR set to: 15
  1214                           ;main.c: 43:     LATGbits.LATG0=1;
  1215   002544  808F               	bsf	143,0,c	;volatile
  1216   002546                     
  1217                           ; BSR set to: 15
  1218                           ;main.c: 46:     TRISCbits.TRISC2=0;
  1219   002546  9494               	bcf	148,2,c	;volatile
  1220   002548                     
  1221                           ; BSR set to: 15
  1222                           ;main.c: 47:     TRISCbits.TRISC1=0;
  1223   002548  9294               	bcf	148,1,c	;volatile
  1224   00254A                     
  1225                           ; BSR set to: 15
  1226                           ;main.c: 48:     TRISGbits.TRISG0=0;
  1227   00254A  9098               	bcf	152,0,c	;volatile
  1228   00254C                     
  1229                           ; BSR set to: 15
  1230                           ;main.c: 49:     TRISGbits.TRISG3=0;
  1231   00254C  9698               	bcf	152,3,c	;volatile
  1232   00254E                     
  1233                           ; BSR set to: 15
  1234                           ;main.c: 50:     TRISGbits.TRISG4=0;
  1235   00254E  9898               	bcf	152,4,c	;volatile
  1236   002550                     
  1237                           ; BSR set to: 15
  1238                           ;main.c: 51:     TRISDbits.TRISD2=0;
  1239   002550  9495               	bcf	149,2,c	;volatile
  1240   002552                     
  1241                           ; BSR set to: 15
  1242                           ;main.c: 52:     TRISDbits.TRISD3=0;
  1243   002552  9695               	bcf	149,3,c	;volatile
  1244   002554                     
  1245                           ; BSR set to: 15
  1246                           ;main.c: 55:     INTCON2bits.RBPU=0;
  1247   002554  9EF1               	bcf	241,7,c	;volatile
  1248   002556                     
  1249                           ; BSR set to: 15
  1250                           ;main.c: 56:     PADCFG1bits.REPU=1;
  1251   002556  8D53               	bsf	83,6,b	;volatile
  1252   002558                     
  1253                           ; BSR set to: 15
  1254   002558  0012               	return		;funcret
  1255   00255A                     __end_of_initialisation_des_ports:
  1256                           	callstack 0
  1257                           
  1258 ;; *************** function _Init *****************
  1259 ;; Defined at:
  1260 ;;		line 4 in file "semaphore.c"
  1261 ;; Parameters:    Size  Location     Type
  1262 ;;  sem             1    wreg     unsigned char 
  1263 ;; Auto vars:     Size  Location     Type
  1264 ;;  sem             1    2[BANK0 ] unsigned char 
  1265 ;; Return value:  Size  Location     Type
  1266 ;;                  1    wreg      void 
  1267 ;; Registers used:
  1268 ;;		wreg, status,2, status,0
  1269 ;; Tracked objects:
  1270 ;;		On entry : 0/0
  1271 ;;		On exit  : 0/0
  1272 ;;		Unchanged: 0/0
  1273 ;; Data sizes:     COMRAM   BANK0   BANK1   BANK2   BANK3   BANK4   BANK5   BANK6   BANK7   BANK8   BANK9  BANK10  BANK1
      +1  BANK12  BANK13  BANK14  BANK15
  1274 ;;      Params:         0       0       0       0       0       0       0       0       0       0       0       0       
      +0       0       0       0       0
  1275 ;;      Locals:         0       1       0       0       0       0       0       0       0       0       0       0       
      +0       0       0       0       0
  1276 ;;      Temps:          0       2       0       0       0       0       0       0       0       0       0       0       
      +0       0       0       0       0
  1277 ;;      Totals:         0       3       0       0       0       0       0       0       0       0       0       0       
      +0       0       0       0       0
  1278 ;;Total ram usage:        3 bytes
  1279 ;; Hardware stack levels used: 1
  1280 ;; Hardware stack levels required when called: 6
  1281 ;; This function calls:
  1282 ;;		Nothing
  1283 ;; This function is called by:
  1284 ;;		_main
  1285 ;; This function uses a non-reentrant model
  1286 ;;
  1287                           
  1288                           	psect	text3
  1289   0023AA                     __ptext3:
  1290                           	callstack 0
  1291   0023AA                     _Init:
  1292                           	callstack 24
  1293                           
  1294                           ; BSR set to: 15
  1295                           ;incstack = 0
  1296                           ;Init@sem stored from wreg
  1297   0023AA  0100               	movlb	0	; () banked
  1298   0023AC  6F83               	movwf	Init@sem& (0+255),b
  1299   0023AE                     
  1300                           ;semaphore.c: 4: void Init(unsigned char sem);semaphore.c: 5: {;semaphore.c: 6:     swit
      +                          ch (sem)
  1301   0023AE  EFE1  F011         	goto	l5185
  1302   0023B2                     l5181:
  1303                           
  1304                           ; BSR set to: 0
  1305                           ;semaphore.c: 9:             Val_sem_cna=1;
  1306   0023B2  0E01               	movlw	1
  1307   0023B4  6E47               	movwf	_Val_sem_cna^0,c
  1308                           
  1309                           ;semaphore.c: 10:             break;
  1310   0023B6  EFF7  F011         	goto	l1411
  1311   0023BA                     l5183:
  1312                           
  1313                           ; BSR set to: 0
  1314                           ;semaphore.c: 12:             Val_sem_rxtx=1;
  1315   0023BA  0E01               	movlw	1
  1316   0023BC  6E46               	movwf	_Val_sem_rxtx^0,c
  1317                           
  1318                           ;semaphore.c: 13:             break;
  1319   0023BE  EFF7  F011         	goto	l1411
  1320   0023C2                     l5185:
  1321   0023C2  0100               	movlb	0	; () banked
  1322   0023C4  5183               	movf	Init@sem& (0+255),w,b
  1323   0023C6  6F81               	movwf	??_Init& (0+255),b
  1324   0023C8  6B82               	clrf	(??_Init+1)& (0+255),b
  1325                           
  1326                           ; Switch on 2 bytes has been partitioned into a top level switch of size 1, and 1 sub-sw
      +                          itches
  1327                           ; Switch size 1, requested type "simple"
  1328                           ; Number of cases is 1, Range of values is 0 to 0
  1329                           ; switch strategies available:
  1330                           ; Name         Instructions Cycles
  1331                           ; simple_byte            4     3 (average)
  1332                           ;	Chosen strategy is simple_byte
  1333   0023CA  5182               	movf	(??_Init+1)& (0+255),w,b
  1334   0023CC  0A00               	xorlw	0	; case 0
  1335   0023CE  B4D8               	btfsc	status,2,c
  1336   0023D0  EFEC  F011         	goto	l5277
  1337   0023D4  EFF7  F011         	goto	l1411
  1338   0023D8                     l5277:
  1339                           
  1340                           ; BSR set to: 0
  1341                           ; Switch size 1, requested type "simple"
  1342                           ; Number of cases is 2, Range of values is 1 to 2
  1343                           ; switch strategies available:
  1344                           ; Name         Instructions Cycles
  1345                           ; simple_byte            7     4 (average)
  1346                           ;	Chosen strategy is simple_byte
  1347   0023D8  5181               	movf	??_Init& (0+255),w,b
  1348   0023DA  0A01               	xorlw	1	; case 1
  1349   0023DC  B4D8               	btfsc	status,2,c
  1350   0023DE  EFD9  F011         	goto	l5181
  1351   0023E2  0A03               	xorlw	3	; case 2
  1352   0023E4  B4D8               	btfsc	status,2,c
  1353   0023E6  EFDD  F011         	goto	l5183
  1354   0023EA  EFF7  F011         	goto	l1411
  1355   0023EE                     l1411:
  1356                           
  1357                           ; BSR set to: 0
  1358   0023EE  0012               	return		;funcret
  1359   0023F0                     __end_of_Init:
  1360                           	callstack 0
  1361                           
  1362 ;; *************** function _fonction_d_interruption *****************
  1363 ;; Defined at:
  1364 ;;		line 17 in file "systeme.c"
  1365 ;; Parameters:    Size  Location     Type
  1366 ;;		None
  1367 ;; Auto vars:     Size  Location     Type
  1368 ;;		None
  1369 ;; Return value:  Size  Location     Type
  1370 ;;                  1    wreg      void 
  1371 ;; Registers used:
  1372 ;;		wreg, fsr2l, fsr2h, status,2, status,0, tblptrl, tblptrh, tblptru, prodl, prodh, cstack
  1373 ;; Tracked objects:
  1374 ;;		On entry : 0/0
  1375 ;;		On exit  : 0/0
  1376 ;;		Unchanged: 0/0
  1377 ;; Data sizes:     COMRAM   BANK0   BANK1   BANK2   BANK3   BANK4   BANK5   BANK6   BANK7   BANK8   BANK9  BANK10  BANK1
      +1  BANK12  BANK13  BANK14  BANK15
  1378 ;;      Params:         0       0       0       0       0       0       0       0       0       0       0       0       
      +0       0       0       0       0
  1379 ;;      Locals:         0       0       0       0       0       0       0       0       0       0       0       0       
      +0       0       0       0       0
  1380 ;;      Temps:         10       0       0       0       0       0       0       0       0       0       0       0       
      +0       0       0       0       0
  1381 ;;      Totals:        10       0       0       0       0       0       0       0       0       0       0       0       
      +0       0       0       0       0
  1382 ;;Total ram usage:       10 bytes
  1383 ;; Hardware stack levels used: 1
  1384 ;; Hardware stack levels required when called: 5
  1385 ;; This function calls:
  1386 ;;		_tache1
  1387 ;;		_tache2
  1388 ;;		_tache3
  1389 ;;		_tache4
  1390 ;;		_tache5
  1391 ;;		_tache6
  1392 ;; This function is called by:
  1393 ;;		Interrupt level 2
  1394 ;; This function uses a non-reentrant model
  1395 ;;
  1396                           
  1397                           	psect	intcode
  1398   000008                     __pintcode:
  1399                           	callstack 0
  1400   000008                     _fonction_d_interruption:
  1401                           	callstack 24
  1402                           
  1403                           ; BSR set to: 0
  1404                           ;incstack = 0
  1405   000008  CFE1 F032          	movff	fsr1l,??_fonction_d_interruption
  1406   00000C  CFE2 F033          	movff	fsr1h,??_fonction_d_interruption+1
  1407   000010  CFD9 F034          	movff	fsr2l,??_fonction_d_interruption+2
  1408   000014  CFDA F035          	movff	fsr2h,??_fonction_d_interruption+3
  1409   000018  CFF3 F036          	movff	prodl,??_fonction_d_interruption+4
  1410   00001C  CFF4 F037          	movff	prodh,??_fonction_d_interruption+5
  1411   000020  CFF6 F038          	movff	tblptrl,??_fonction_d_interruption+6
  1412   000024  CFF7 F039          	movff	tblptrh,??_fonction_d_interruption+7
  1413   000028  CFF8 F03A          	movff	tblptru,??_fonction_d_interruption+8
  1414   00002C  CFF5 F03B          	movff	tablat,??_fonction_d_interruption+9
  1415   000030  EE1A  F0AC         	lfsr	1,___inthi_sp
  1416   000034                     
  1417                           ;systeme.c: 20:     STATUS_TEMPORAIRE=STATUS; W_TEMPORAIRE=WREG; BSR_TEMPORAIRE=BSR;
  1418   000034  CFD8 F061          	movff	status,97	;volatile
  1419   000038  0100               	movlb	0	; () banked
  1420   00003A  6F60               	movwf	96,b
  1421   00003C                     
  1422                           ; BSR set to: 0
  1423   00003C  CFE0 F062          	movff	bsr,98	;volatile
  1424   000040                     
  1425                           ; BSR set to: 0
  1426                           ;systeme.c: 21:     FSR0H_TEMPORAIRE=FSR0H; FSR0L_TEMPORAIRE=FSR0L;
  1427   000040  CFEA F063          	movff	fsr0h,99	;volatile
  1428   000044                     
  1429                           ; BSR set to: 0
  1430   000044  CFE9 F064          	movff	fsr0l,100	;volatile
  1431   000048                     
  1432                           ; BSR set to: 0
  1433                           ;systeme.c: 24:     if(T0IE && T0IF)
  1434   000048  AAF2               	btfss	4082,5,c	;volatile
  1435   00004A  EF29  F000         	goto	i2u212_41
  1436   00004E  EF2B  F000         	goto	i2u212_40
  1437   000052                     i2u212_41:
  1438   000052  EF7F  F001         	goto	i2l4877
  1439   000056                     i2u212_40:
  1440   000056                     
  1441                           ; BSR set to: 0
  1442   000056  A4F2               	btfss	4082,2,c	;volatile
  1443   000058  EF30  F000         	goto	i2u213_41
  1444   00005C  EF32  F000         	goto	i2u213_40
  1445   000060                     i2u213_41:
  1446   000060  EF7F  F001         	goto	i2l4877
  1447   000064                     i2u213_40:
  1448   000064                     
  1449                           ; BSR set to: 0
  1450                           ;systeme.c: 25:     {;systeme.c: 26:         if (DEMARRAGE==1)
  1451   000064  0565               	decf	101,w,b
  1452   000066  A4D8               	btfss	status,2,c
  1453   000068  EF38  F000         	goto	i2u214_41
  1454   00006C  EF3A  F000         	goto	i2u214_40
  1455   000070                     i2u214_41:
  1456   000070  EF3E  F000         	goto	i2l4577
  1457   000074                     i2u214_40:
  1458   000074                     
  1459                           ; BSR set to: 0
  1460                           ;systeme.c: 27:         {;systeme.c: 28:             STKPTR=27;
  1461   000074  0E1B               	movlw	27
  1462   000076  6EFC               	movwf	252,c	;volatile
  1463                           
  1464                           ;systeme.c: 29:             DEMARRAGE=0;
  1465   000078  0E00               	movlw	0
  1466   00007A  6F65               	movwf	101,b
  1467   00007C                     i2l4577:
  1468                           
  1469                           ; BSR set to: 0
  1470                           ;systeme.c: 34:         FSR0H=tache_active;
  1471   00007C  C06F FFEA          	movff	111,fsr0h	;volatile
  1472                           
  1473                           ;systeme.c: 35:         FSR0L=0;
  1474   000080  0E00               	movlw	0
  1475   000082  6EE9               	movwf	233,c	;volatile
  1476   000084                     
  1477                           ; BSR set to: 0
  1478                           ;systeme.c: 36:         POSTINC0=W_TEMPORAIRE; POSTINC0=STATUS_TEMPORAIRE; POSTINC0=BSR_
      +                          TEMPORAIRE; POSTINC0=STKPTR;
  1479   000084  C060 FFEE          	movff	96,postinc0	;volatile
  1480   000088                     
  1481                           ; BSR set to: 0
  1482   000088  C061 FFEE          	movff	97,postinc0	;volatile
  1483   00008C                     
  1484                           ; BSR set to: 0
  1485   00008C  C062 FFEE          	movff	98,postinc0	;volatile
  1486   000090                     
  1487                           ; BSR set to: 0
  1488   000090  CFFC FFEE          	movff	stkptr,postinc0	;volatile
  1489   000094                     
  1490                           ; BSR set to: 0
  1491                           ;systeme.c: 37:         POSTINC0=FSR0H_TEMPORAIRE; POSTINC0=FSR0L_TEMPORAIRE; POSTINC0=F
      +                          SR1H; POSTINC0=FSR1L;
  1492   000094  C063 FFEE          	movff	99,postinc0	;volatile
  1493   000098                     
  1494                           ; BSR set to: 0
  1495   000098  C064 FFEE          	movff	100,postinc0	;volatile
  1496   00009C                     
  1497                           ; BSR set to: 0
  1498   00009C  CFE2 FFEE          	movff	fsr1h,postinc0	;volatile
  1499   0000A0                     
  1500                           ; BSR set to: 0
  1501   0000A0  CFE1 FFEE          	movff	fsr1l,postinc0	;volatile
  1502   0000A4                     
  1503                           ; BSR set to: 0
  1504                           ;systeme.c: 38:         POSTINC0=FSR2H; POSTINC0=FSR2L; POSTINC0=PRODH; POSTINC0=PRODL;
  1505   0000A4  CFDA FFEE          	movff	fsr2h,postinc0	;volatile
  1506   0000A8                     
  1507                           ; BSR set to: 0
  1508   0000A8  CFD9 FFEE          	movff	fsr2l,postinc0	;volatile
  1509   0000AC                     
  1510                           ; BSR set to: 0
  1511   0000AC  CFF4 FFEE          	movff	prodh,postinc0	;volatile
  1512   0000B0                     
  1513                           ; BSR set to: 0
  1514   0000B0  CFF3 FFEE          	movff	prodl,postinc0	;volatile
  1515   0000B4                     
  1516                           ; BSR set to: 0
  1517                           ;systeme.c: 39:         POSTINC0=TBLPTRU; POSTINC0=TBLPTRH; POSTINC0=TBLPTRL; POSTINC0=T
      +                          ABLAT;
  1518   0000B4  CFF8 FFEE          	movff	tblptru,postinc0	;volatile
  1519   0000B8                     
  1520                           ; BSR set to: 0
  1521   0000B8  CFF7 FFEE          	movff	tblptrh,postinc0	;volatile
  1522   0000BC                     
  1523                           ; BSR set to: 0
  1524   0000BC  CFF6 FFEE          	movff	tblptrl,postinc0	;volatile
  1525   0000C0                     
  1526                           ; BSR set to: 0
  1527   0000C0  CFF5 FFEE          	movff	tablat,postinc0	;volatile
  1528   0000C4                     
  1529                           ; BSR set to: 0
  1530                           ;systeme.c: 40:         POSTINC0=PCLATU; POSTINC0=PCLATH;
  1531   0000C4  CFFB FFEE          	movff	pclatu,postinc0	;volatile
  1532   0000C8                     
  1533                           ; BSR set to: 0
  1534   0000C8  CFFA FFEE          	movff	pclath,postinc0	;volatile
  1535                           
  1536                           ;systeme.c: 44:         FSR1H=0;
  1537   0000CC  0E00               	movlw	0
  1538   0000CE  6EE2               	movwf	226,c	;volatile
  1539                           
  1540                           ;systeme.c: 45:         FSR1L=0;
  1541   0000D0  0E00               	movlw	0
  1542   0000D2  6EE1               	movwf	225,c	;volatile
  1543   0000D4                     
  1544                           ; BSR set to: 0
  1545                           ;systeme.c: 46:         POSTINC0=POSTINC1;POSTINC0=POSTINC1;POSTINC0=POSTINC1;POSTINC0=P
      +                          OSTINC1;
  1546   0000D4  CFE6 FFEE          	movff	postinc1,postinc0	;volatile
  1547   0000D8                     
  1548                           ; BSR set to: 0
  1549   0000D8  CFE6 FFEE          	movff	postinc1,postinc0	;volatile
  1550   0000DC                     
  1551                           ; BSR set to: 0
  1552   0000DC  CFE6 FFEE          	movff	postinc1,postinc0	;volatile
  1553   0000E0                     
  1554                           ; BSR set to: 0
  1555   0000E0  CFE6 FFEE          	movff	postinc1,postinc0	;volatile
  1556   0000E4                     
  1557                           ; BSR set to: 0
  1558                           ;systeme.c: 47:         POSTINC0=POSTINC1;POSTINC0=POSTINC1;POSTINC0=POSTINC1;POSTINC0=P
      +                          OSTINC1;
  1559   0000E4  CFE6 FFEE          	movff	postinc1,postinc0	;volatile
  1560   0000E8                     
  1561                           ; BSR set to: 0
  1562   0000E8  CFE6 FFEE          	movff	postinc1,postinc0	;volatile
  1563   0000EC                     
  1564                           ; BSR set to: 0
  1565   0000EC  CFE6 FFEE          	movff	postinc1,postinc0	;volatile
  1566   0000F0                     
  1567                           ; BSR set to: 0
  1568   0000F0  CFE6 FFEE          	movff	postinc1,postinc0	;volatile
  1569   0000F4                     
  1570                           ; BSR set to: 0
  1571                           ;systeme.c: 48:         POSTINC0=POSTINC1;POSTINC0=POSTINC1;POSTINC0=POSTINC1;POSTINC0=P
      +                          OSTINC1;
  1572   0000F4  CFE6 FFEE          	movff	postinc1,postinc0	;volatile
  1573   0000F8                     
  1574                           ; BSR set to: 0
  1575   0000F8  CFE6 FFEE          	movff	postinc1,postinc0	;volatile
  1576   0000FC                     
  1577                           ; BSR set to: 0
  1578   0000FC  CFE6 FFEE          	movff	postinc1,postinc0	;volatile
  1579   000100                     
  1580                           ; BSR set to: 0
  1581   000100  CFE6 FFEE          	movff	postinc1,postinc0	;volatile
  1582   000104                     
  1583                           ; BSR set to: 0
  1584                           ;systeme.c: 49:         POSTINC0=POSTINC1;POSTINC0=POSTINC1;POSTINC0=POSTINC1;POSTINC0=P
      +                          OSTINC1;
  1585   000104  CFE6 FFEE          	movff	postinc1,postinc0	;volatile
  1586   000108                     
  1587                           ; BSR set to: 0
  1588   000108  CFE6 FFEE          	movff	postinc1,postinc0	;volatile
  1589   00010C                     
  1590                           ; BSR set to: 0
  1591   00010C  CFE6 FFEE          	movff	postinc1,postinc0	;volatile
  1592   000110                     
  1593                           ; BSR set to: 0
  1594   000110  CFE6 FFEE          	movff	postinc1,postinc0	;volatile
  1595   000114                     
  1596                           ; BSR set to: 0
  1597                           ;systeme.c: 51:         POSTINC0=POSTINC1;POSTINC0=POSTINC1;POSTINC0=POSTINC1;POSTINC0=P
      +                          OSTINC1;
  1598   000114  CFE6 FFEE          	movff	postinc1,postinc0	;volatile
  1599   000118                     
  1600                           ; BSR set to: 0
  1601   000118  CFE6 FFEE          	movff	postinc1,postinc0	;volatile
  1602   00011C                     
  1603                           ; BSR set to: 0
  1604   00011C  CFE6 FFEE          	movff	postinc1,postinc0	;volatile
  1605   000120                     
  1606                           ; BSR set to: 0
  1607   000120  CFE6 FFEE          	movff	postinc1,postinc0	;volatile
  1608   000124                     
  1609                           ; BSR set to: 0
  1610                           ;systeme.c: 52:         POSTINC0=POSTINC1;POSTINC0=POSTINC1;POSTINC0=POSTINC1;POSTINC0=P
      +                          OSTINC1;
  1611   000124  CFE6 FFEE          	movff	postinc1,postinc0	;volatile
  1612   000128                     
  1613                           ; BSR set to: 0
  1614   000128  CFE6 FFEE          	movff	postinc1,postinc0	;volatile
  1615   00012C                     
  1616                           ; BSR set to: 0
  1617   00012C  CFE6 FFEE          	movff	postinc1,postinc0	;volatile
  1618   000130                     
  1619                           ; BSR set to: 0
  1620   000130  CFE6 FFEE          	movff	postinc1,postinc0	;volatile
  1621   000134                     
  1622                           ; BSR set to: 0
  1623                           ;systeme.c: 53:         POSTINC0=POSTINC1;POSTINC0=POSTINC1;POSTINC0=POSTINC1;POSTINC0=P
      +                          OSTINC1;
  1624   000134  CFE6 FFEE          	movff	postinc1,postinc0	;volatile
  1625   000138                     
  1626                           ; BSR set to: 0
  1627   000138  CFE6 FFEE          	movff	postinc1,postinc0	;volatile
  1628   00013C                     
  1629                           ; BSR set to: 0
  1630   00013C  CFE6 FFEE          	movff	postinc1,postinc0	;volatile
  1631   000140                     
  1632                           ; BSR set to: 0
  1633   000140  CFE6 FFEE          	movff	postinc1,postinc0	;volatile
  1634   000144                     
  1635                           ; BSR set to: 0
  1636                           ;systeme.c: 54:         POSTINC0=POSTINC1;POSTINC0=POSTINC1;POSTINC0=POSTINC1;POSTINC0=P
      +                          OSTINC1;
  1637   000144  CFE6 FFEE          	movff	postinc1,postinc0	;volatile
  1638   000148                     
  1639                           ; BSR set to: 0
  1640   000148  CFE6 FFEE          	movff	postinc1,postinc0	;volatile
  1641   00014C                     
  1642                           ; BSR set to: 0
  1643   00014C  CFE6 FFEE          	movff	postinc1,postinc0	;volatile
  1644   000150                     
  1645                           ; BSR set to: 0
  1646   000150  CFE6 FFEE          	movff	postinc1,postinc0	;volatile
  1647   000154                     
  1648                           ; BSR set to: 0
  1649                           ;systeme.c: 56:         POSTINC0=POSTINC1;POSTINC0=POSTINC1;POSTINC0=POSTINC1;POSTINC0=P
      +                          OSTINC1;
  1650   000154  CFE6 FFEE          	movff	postinc1,postinc0	;volatile
  1651   000158                     
  1652                           ; BSR set to: 0
  1653   000158  CFE6 FFEE          	movff	postinc1,postinc0	;volatile
  1654   00015C                     
  1655                           ; BSR set to: 0
  1656   00015C  CFE6 FFEE          	movff	postinc1,postinc0	;volatile
  1657   000160                     
  1658                           ; BSR set to: 0
  1659   000160  CFE6 FFEE          	movff	postinc1,postinc0	;volatile
  1660   000164                     
  1661                           ; BSR set to: 0
  1662                           ;systeme.c: 57:         POSTINC0=POSTINC1;POSTINC0=POSTINC1;POSTINC0=POSTINC1;POSTINC0=P
      +                          OSTINC1;
  1663   000164  CFE6 FFEE          	movff	postinc1,postinc0	;volatile
  1664   000168                     
  1665                           ; BSR set to: 0
  1666   000168  CFE6 FFEE          	movff	postinc1,postinc0	;volatile
  1667   00016C                     
  1668                           ; BSR set to: 0
  1669   00016C  CFE6 FFEE          	movff	postinc1,postinc0	;volatile
  1670   000170                     
  1671                           ; BSR set to: 0
  1672   000170  CFE6 FFEE          	movff	postinc1,postinc0	;volatile
  1673   000174                     
  1674                           ; BSR set to: 0
  1675                           ;systeme.c: 58:         POSTINC0=POSTINC1;POSTINC0=POSTINC1;POSTINC0=POSTINC1;POSTINC0=P
      +                          OSTINC1;
  1676   000174  CFE6 FFEE          	movff	postinc1,postinc0	;volatile
  1677   000178                     
  1678                           ; BSR set to: 0
  1679   000178  CFE6 FFEE          	movff	postinc1,postinc0	;volatile
  1680   00017C                     
  1681                           ; BSR set to: 0
  1682   00017C  CFE6 FFEE          	movff	postinc1,postinc0	;volatile
  1683   000180                     
  1684                           ; BSR set to: 0
  1685   000180  CFE6 FFEE          	movff	postinc1,postinc0	;volatile
  1686   000184                     
  1687                           ; BSR set to: 0
  1688                           ;systeme.c: 59:         POSTINC0=POSTINC1;POSTINC0=POSTINC1;POSTINC0=POSTINC1;POSTINC0=P
      +                          OSTINC1;
  1689   000184  CFE6 FFEE          	movff	postinc1,postinc0	;volatile
  1690   000188                     
  1691                           ; BSR set to: 0
  1692   000188  CFE6 FFEE          	movff	postinc1,postinc0	;volatile
  1693   00018C                     
  1694                           ; BSR set to: 0
  1695   00018C  CFE6 FFEE          	movff	postinc1,postinc0	;volatile
  1696   000190                     
  1697                           ; BSR set to: 0
  1698   000190  CFE6 FFEE          	movff	postinc1,postinc0	;volatile
  1699                           
  1700                           ;systeme.c: 62:         TMR0=(0xFFFF-30000);
  1701   000194  0E8A               	movlw	138
  1702   000196  6ED7               	movwf	215,c	;volatile
  1703   000198  0ECF               	movlw	207
  1704   00019A  6ED6               	movwf	214,c	;volatile
  1705   00019C                     
  1706                           ; BSR set to: 0
  1707                           ;systeme.c: 63:         T0IF=0;
  1708   00019C  94F2               	bcf	4082,2,c	;volatile
  1709   00019E                     
  1710                           ; BSR set to: 0
  1711                           ;systeme.c: 65:         Tick_Count++;
  1712   00019E  4B71               	infsnz	113,f,b
  1713   0001A0  2B72               	incf	114,f,b
  1714   0001A2                     
  1715                           ; BSR set to: 0
  1716                           ;systeme.c: 67:         pointeur_de_tache++;
  1717   0001A2  2B70               	incf	112,f,b
  1718   0001A4                     
  1719                           ; BSR set to: 0
  1720                           ;systeme.c: 68:         if (pointeur_de_tache==6)
  1721   0001A4  0E06               	movlw	6
  1722   0001A6  1970               	xorwf	112,w,b
  1723   0001A8  A4D8               	btfss	status,2,c
  1724   0001AA  EFD9  F000         	goto	i2u215_41
  1725   0001AE  EFDB  F000         	goto	i2u215_40
  1726   0001B2                     i2u215_41:
  1727   0001B2  EFDD  F000         	goto	i2l4721
  1728   0001B6                     i2u215_40:
  1729   0001B6                     
  1730                           ; BSR set to: 0
  1731                           ;systeme.c: 69:             pointeur_de_tache=0;
  1732   0001B6  0E00               	movlw	0
  1733   0001B8  6F70               	movwf	112,b
  1734   0001BA                     i2l4721:
  1735                           
  1736                           ; BSR set to: 0
  1737                           ;systeme.c: 70:         tache_active=queue[pointeur_de_tache];
  1738   0001BA  0E69               	movlw	105
  1739   0001BC  2570               	addwf	112,w,b
  1740   0001BE  6ED9               	movwf	fsr2l,c
  1741   0001C0  6ADA               	clrf	fsr2h,c
  1742   0001C2  0E00               	movlw	0
  1743   0001C4  22DA               	addwfc	fsr2h,f,c
  1744   0001C6  50DF               	movf	indf2,w,c
  1745   0001C8  6F6F               	movwf	111,b
  1746   0001CA                     
  1747                           ; BSR set to: 0
  1748                           ;systeme.c: 75:         FSR1H=0;
  1749   0001CA  0E00               	movlw	0
  1750   0001CC  6EE2               	movwf	226,c	;volatile
  1751   0001CE                     
  1752                           ; BSR set to: 0
  1753                           ;systeme.c: 76:         FSR1L=0;
  1754   0001CE  0E00               	movlw	0
  1755   0001D0  6EE1               	movwf	225,c	;volatile
  1756   0001D2                     
  1757                           ; BSR set to: 0
  1758                           ;systeme.c: 77:         FSR0H=tache_active;
  1759   0001D2  C06F FFEA          	movff	111,fsr0h	;volatile
  1760   0001D6                     
  1761                           ; BSR set to: 0
  1762                           ;systeme.c: 78:         FSR0L=18;
  1763   0001D6  0E12               	movlw	18
  1764   0001D8  6EE9               	movwf	233,c	;volatile
  1765   0001DA                     
  1766                           ; BSR set to: 0
  1767                           ;systeme.c: 79:         POSTINC1=POSTINC0;POSTINC1=POSTINC0;POSTINC1=POSTINC0;POSTINC1=P
      +                          OSTINC0;
  1768   0001DA  CFEE FFE6          	movff	postinc0,postinc1	;volatile
  1769   0001DE                     
  1770                           ; BSR set to: 0
  1771   0001DE  CFEE FFE6          	movff	postinc0,postinc1	;volatile
  1772   0001E2                     
  1773                           ; BSR set to: 0
  1774   0001E2  CFEE FFE6          	movff	postinc0,postinc1	;volatile
  1775   0001E6                     
  1776                           ; BSR set to: 0
  1777   0001E6  CFEE FFE6          	movff	postinc0,postinc1	;volatile
  1778   0001EA                     
  1779                           ; BSR set to: 0
  1780                           ;systeme.c: 80:         POSTINC1=POSTINC0;POSTINC1=POSTINC0;POSTINC1=POSTINC0;POSTINC1=P
      +                          OSTINC0;
  1781   0001EA  CFEE FFE6          	movff	postinc0,postinc1	;volatile
  1782   0001EE                     
  1783                           ; BSR set to: 0
  1784   0001EE  CFEE FFE6          	movff	postinc0,postinc1	;volatile
  1785   0001F2                     
  1786                           ; BSR set to: 0
  1787   0001F2  CFEE FFE6          	movff	postinc0,postinc1	;volatile
  1788   0001F6                     
  1789                           ; BSR set to: 0
  1790   0001F6  CFEE FFE6          	movff	postinc0,postinc1	;volatile
  1791   0001FA                     
  1792                           ; BSR set to: 0
  1793                           ;systeme.c: 81:         POSTINC1=POSTINC0;POSTINC1=POSTINC0;POSTINC1=POSTINC0;POSTINC1=P
      +                          OSTINC0;
  1794   0001FA  CFEE FFE6          	movff	postinc0,postinc1	;volatile
  1795   0001FE                     
  1796                           ; BSR set to: 0
  1797   0001FE  CFEE FFE6          	movff	postinc0,postinc1	;volatile
  1798   000202                     
  1799                           ; BSR set to: 0
  1800   000202  CFEE FFE6          	movff	postinc0,postinc1	;volatile
  1801   000206                     
  1802                           ; BSR set to: 0
  1803   000206  CFEE FFE6          	movff	postinc0,postinc1	;volatile
  1804   00020A                     
  1805                           ; BSR set to: 0
  1806                           ;systeme.c: 82:         POSTINC1=POSTINC0;POSTINC1=POSTINC0;POSTINC1=POSTINC0;POSTINC1=P
      +                          OSTINC0;
  1807   00020A  CFEE FFE6          	movff	postinc0,postinc1	;volatile
  1808   00020E                     
  1809                           ; BSR set to: 0
  1810   00020E  CFEE FFE6          	movff	postinc0,postinc1	;volatile
  1811   000212                     
  1812                           ; BSR set to: 0
  1813   000212  CFEE FFE6          	movff	postinc0,postinc1	;volatile
  1814   000216                     
  1815                           ; BSR set to: 0
  1816   000216  CFEE FFE6          	movff	postinc0,postinc1	;volatile
  1817   00021A                     
  1818                           ; BSR set to: 0
  1819                           ;systeme.c: 84:         POSTINC1=POSTINC0;POSTINC1=POSTINC0;POSTINC1=POSTINC0;POSTINC1=P
      +                          OSTINC0;
  1820   00021A  CFEE FFE6          	movff	postinc0,postinc1	;volatile
  1821   00021E                     
  1822                           ; BSR set to: 0
  1823   00021E  CFEE FFE6          	movff	postinc0,postinc1	;volatile
  1824   000222                     
  1825                           ; BSR set to: 0
  1826   000222  CFEE FFE6          	movff	postinc0,postinc1	;volatile
  1827   000226                     
  1828                           ; BSR set to: 0
  1829   000226  CFEE FFE6          	movff	postinc0,postinc1	;volatile
  1830   00022A                     
  1831                           ; BSR set to: 0
  1832                           ;systeme.c: 85:         POSTINC1=POSTINC0;POSTINC1=POSTINC0;POSTINC1=POSTINC0;POSTINC1=P
      +                          OSTINC0;
  1833   00022A  CFEE FFE6          	movff	postinc0,postinc1	;volatile
  1834   00022E                     
  1835                           ; BSR set to: 0
  1836   00022E  CFEE FFE6          	movff	postinc0,postinc1	;volatile
  1837   000232                     
  1838                           ; BSR set to: 0
  1839   000232  CFEE FFE6          	movff	postinc0,postinc1	;volatile
  1840   000236                     
  1841                           ; BSR set to: 0
  1842   000236  CFEE FFE6          	movff	postinc0,postinc1	;volatile
  1843   00023A                     
  1844                           ; BSR set to: 0
  1845                           ;systeme.c: 86:         POSTINC1=POSTINC0;POSTINC1=POSTINC0;POSTINC1=POSTINC0;POSTINC1=P
      +                          OSTINC0;
  1846   00023A  CFEE FFE6          	movff	postinc0,postinc1	;volatile
  1847   00023E                     
  1848                           ; BSR set to: 0
  1849   00023E  CFEE FFE6          	movff	postinc0,postinc1	;volatile
  1850   000242                     
  1851                           ; BSR set to: 0
  1852   000242  CFEE FFE6          	movff	postinc0,postinc1	;volatile
  1853   000246                     
  1854                           ; BSR set to: 0
  1855   000246  CFEE FFE6          	movff	postinc0,postinc1	;volatile
  1856   00024A                     
  1857                           ; BSR set to: 0
  1858                           ;systeme.c: 87:         POSTINC1=POSTINC0;POSTINC1=POSTINC0;POSTINC1=POSTINC0;POSTINC1=P
      +                          OSTINC0;
  1859   00024A  CFEE FFE6          	movff	postinc0,postinc1	;volatile
  1860   00024E                     
  1861                           ; BSR set to: 0
  1862   00024E  CFEE FFE6          	movff	postinc0,postinc1	;volatile
  1863   000252                     
  1864                           ; BSR set to: 0
  1865   000252  CFEE FFE6          	movff	postinc0,postinc1	;volatile
  1866   000256                     
  1867                           ; BSR set to: 0
  1868   000256  CFEE FFE6          	movff	postinc0,postinc1	;volatile
  1869   00025A                     
  1870                           ; BSR set to: 0
  1871                           ;systeme.c: 89:         POSTINC1=POSTINC0;POSTINC1=POSTINC0;POSTINC1=POSTINC0;POSTINC1=P
      +                          OSTINC0;
  1872   00025A  CFEE FFE6          	movff	postinc0,postinc1	;volatile
  1873   00025E                     
  1874                           ; BSR set to: 0
  1875   00025E  CFEE FFE6          	movff	postinc0,postinc1	;volatile
  1876   000262                     
  1877                           ; BSR set to: 0
  1878   000262  CFEE FFE6          	movff	postinc0,postinc1	;volatile
  1879   000266                     
  1880                           ; BSR set to: 0
  1881   000266  CFEE FFE6          	movff	postinc0,postinc1	;volatile
  1882   00026A                     
  1883                           ; BSR set to: 0
  1884                           ;systeme.c: 90:         POSTINC1=POSTINC0;POSTINC1=POSTINC0;POSTINC1=POSTINC0;POSTINC1=P
      +                          OSTINC0;
  1885   00026A  CFEE FFE6          	movff	postinc0,postinc1	;volatile
  1886   00026E                     
  1887                           ; BSR set to: 0
  1888   00026E  CFEE FFE6          	movff	postinc0,postinc1	;volatile
  1889   000272                     
  1890                           ; BSR set to: 0
  1891   000272  CFEE FFE6          	movff	postinc0,postinc1	;volatile
  1892   000276                     
  1893                           ; BSR set to: 0
  1894   000276  CFEE FFE6          	movff	postinc0,postinc1	;volatile
  1895   00027A                     
  1896                           ; BSR set to: 0
  1897                           ;systeme.c: 91:         POSTINC1=POSTINC0;POSTINC1=POSTINC0;POSTINC1=POSTINC0;POSTINC1=P
      +                          OSTINC0;
  1898   00027A  CFEE FFE6          	movff	postinc0,postinc1	;volatile
  1899   00027E                     
  1900                           ; BSR set to: 0
  1901   00027E  CFEE FFE6          	movff	postinc0,postinc1	;volatile
  1902   000282                     
  1903                           ; BSR set to: 0
  1904   000282  CFEE FFE6          	movff	postinc0,postinc1	;volatile
  1905   000286                     
  1906                           ; BSR set to: 0
  1907   000286  CFEE FFE6          	movff	postinc0,postinc1	;volatile
  1908   00028A                     
  1909                           ; BSR set to: 0
  1910                           ;systeme.c: 92:         POSTINC1=POSTINC0;POSTINC1=POSTINC0;POSTINC1=POSTINC0;POSTINC1=P
      +                          OSTINC0;
  1911   00028A  CFEE FFE6          	movff	postinc0,postinc1	;volatile
  1912   00028E                     
  1913                           ; BSR set to: 0
  1914   00028E  CFEE FFE6          	movff	postinc0,postinc1	;volatile
  1915   000292                     
  1916                           ; BSR set to: 0
  1917   000292  CFEE FFE6          	movff	postinc0,postinc1	;volatile
  1918   000296                     
  1919                           ; BSR set to: 0
  1920   000296  CFEE FFE6          	movff	postinc0,postinc1	;volatile
  1921   00029A                     
  1922                           ; BSR set to: 0
  1923                           ;systeme.c: 96:         FSR0H=tache_active;
  1924   00029A  C06F FFEA          	movff	111,fsr0h	;volatile
  1925   00029E                     
  1926                           ; BSR set to: 0
  1927                           ;systeme.c: 97:         FSR0L=0;
  1928   00029E  0E00               	movlw	0
  1929   0002A0  6EE9               	movwf	233,c	;volatile
  1930   0002A2                     
  1931                           ; BSR set to: 0
  1932                           ;systeme.c: 99:         W_TEMPORAIRE=POSTINC0; STATUS_TEMPORAIRE=POSTINC0; BSR_TEMPORAIR
      +                          E=POSTINC0; STKPTR=POSTINC0;
  1933   0002A2  CFEE F060          	movff	postinc0,96	;volatile
  1934   0002A6                     
  1935                           ; BSR set to: 0
  1936   0002A6  CFEE F061          	movff	postinc0,97	;volatile
  1937   0002AA                     
  1938                           ; BSR set to: 0
  1939   0002AA  CFEE F062          	movff	postinc0,98	;volatile
  1940   0002AE                     
  1941                           ; BSR set to: 0
  1942   0002AE  CFEE FFFC          	movff	postinc0,stkptr	;volatile
  1943   0002B2                     
  1944                           ; BSR set to: 0
  1945                           ;systeme.c: 100:         FSR0H_TEMPORAIRE=POSTINC0; FSR0L_TEMPORAIRE=POSTINC0; FSR1H=POS
      +                          TINC0; FSR1L=POSTINC0;
  1946   0002B2  CFEE F063          	movff	postinc0,99	;volatile
  1947   0002B6                     
  1948                           ; BSR set to: 0
  1949   0002B6  CFEE F064          	movff	postinc0,100	;volatile
  1950   0002BA                     
  1951                           ; BSR set to: 0
  1952   0002BA  CFEE FFE2          	movff	postinc0,fsr1h	;volatile
  1953   0002BE                     
  1954                           ; BSR set to: 0
  1955   0002BE  CFEE FFE1          	movff	postinc0,fsr1l	;volatile
  1956   0002C2                     
  1957                           ; BSR set to: 0
  1958                           ;systeme.c: 101:         FSR2H=POSTINC0; FSR2L=POSTINC0; PRODH=POSTINC0; PRODL=POSTINC0;
  1959   0002C2  CFEE FFDA          	movff	postinc0,fsr2h	;volatile
  1960   0002C6                     
  1961                           ; BSR set to: 0
  1962   0002C6  CFEE FFD9          	movff	postinc0,fsr2l	;volatile
  1963   0002CA                     
  1964                           ; BSR set to: 0
  1965   0002CA  CFEE FFF4          	movff	postinc0,prodh	;volatile
  1966   0002CE                     
  1967                           ; BSR set to: 0
  1968   0002CE  CFEE FFF3          	movff	postinc0,prodl	;volatile
  1969   0002D2                     
  1970                           ; BSR set to: 0
  1971                           ;systeme.c: 102:         TBLPTRU=POSTINC0; TBLPTRH=POSTINC0; TBLPTRL=POSTINC0; TABLAT=PO
      +                          STINC0;
  1972   0002D2  CFEE FFF8          	movff	postinc0,tblptru	;volatile
  1973   0002D6                     
  1974                           ; BSR set to: 0
  1975   0002D6  CFEE FFF7          	movff	postinc0,tblptrh	;volatile
  1976   0002DA                     
  1977                           ; BSR set to: 0
  1978   0002DA  CFEE FFF6          	movff	postinc0,tblptrl	;volatile
  1979   0002DE                     
  1980                           ; BSR set to: 0
  1981   0002DE  CFEE FFF5          	movff	postinc0,tablat	;volatile
  1982   0002E2                     
  1983                           ; BSR set to: 0
  1984                           ;systeme.c: 103:         PCLATU=POSTINC0; PCLATH=POSTINC0;
  1985   0002E2  CFEE FFFB          	movff	postinc0,pclatu	;volatile
  1986   0002E6                     
  1987                           ; BSR set to: 0
  1988   0002E6  CFEE FFFA          	movff	postinc0,pclath	;volatile
  1989   0002EA                     
  1990                           ; BSR set to: 0
  1991                           ;systeme.c: 106:         FSR0L=FSR0L_TEMPORAIRE; FSR0H=FSR0H_TEMPORAIRE; BSR=BSR_TEMPORA
      +                          IRE;
  1992   0002EA  C064 FFE9          	movff	100,fsr0l	;volatile
  1993   0002EE                     
  1994                           ; BSR set to: 0
  1995   0002EE  C063 FFEA          	movff	99,fsr0h	;volatile
  1996   0002F2                     
  1997                           ; BSR set to: 0
  1998   0002F2  C062 FFE0          	movff	98,bsr	;volatile
  1999   0002F6                     
  2000                           ; BSR set to: 0
  2001                           ;systeme.c: 107:         WREG=W_TEMPORAIRE; STATUS=STATUS_TEMPORAIRE;
  2002   0002F6  5160               	movf	96,w,b
  2003   0002F8                     
  2004                           ; BSR set to: 0
  2005   0002F8  C061 FFD8          	movff	97,status	;volatile
  2006   0002FC  0010               	retfie		;# 
  2007   0002FE                     i2l4877:
  2008                           
  2009                           ;systeme.c: 116:     FSR0L=FSR0L_TEMPORAIRE; FSR0H=FSR0H_TEMPORAIRE; BSR=BSR_TEMPORAIRE;
  2010   0002FE  C064 FFE9          	movff	100,fsr0l	;volatile
  2011   000302  C063 FFEA          	movff	99,fsr0h	;volatile
  2012   000306  C062 FFE0          	movff	98,bsr	;volatile
  2013   00030A                     
  2014                           ;systeme.c: 117:     WREG=W_TEMPORAIRE; STATUS=STATUS_TEMPORAIRE;
  2015   00030A  0100               	movlb	0	; () banked
  2016   00030C  5160               	movf	96,w,b
  2017   00030E                     
  2018                           ; BSR set to: 0
  2019   00030E  C061 FFD8          	movff	97,status	;volatile
  2020   000312  0010               	retfie		;# 
  2021   000314                     
  2022                           ;systeme.c: 123:     tache1();
  2023   000314  EC46  F008         	call	_tache1	;wreg free
  2024   000318                     
  2025                           ;systeme.c: 124:     tache2();
  2026   000318  ECBC  F00C         	call	_tache2	;wreg free
  2027   00031C                     
  2028                           ;systeme.c: 125:     tache3();
  2029   00031C  EC08  F00C         	call	_tache3	;wreg free
  2030   000320                     
  2031                           ;systeme.c: 126:     tache4();
  2032   000320  EC57  F00D         	call	_tache4	;wreg free
  2033   000324                     
  2034                           ;systeme.c: 127:     tache5();
  2035   000324  ECF3  F00A         	call	_tache5	;wreg free
  2036   000328                     
  2037                           ;systeme.c: 128:     tache6();
  2038   000328  ECF8  F011         	call	_tache6	;wreg free
  2039   00032C  C03B  FFF5         	movff	??_fonction_d_interruption+9,tablat
  2040   000330  C03A  FFF8         	movff	??_fonction_d_interruption+8,tblptru
  2041   000334  C039  FFF7         	movff	??_fonction_d_interruption+7,tblptrh
  2042   000338  C038  FFF6         	movff	??_fonction_d_interruption+6,tblptrl
  2043   00033C  C037  FFF4         	movff	??_fonction_d_interruption+5,prodh
  2044   000340  C036  FFF3         	movff	??_fonction_d_interruption+4,prodl
  2045   000344  C035  FFDA         	movff	??_fonction_d_interruption+3,fsr2h
  2046   000348  C034  FFD9         	movff	??_fonction_d_interruption+2,fsr2l
  2047   00034C  C033  FFE2         	movff	??_fonction_d_interruption+1,fsr1h
  2048   000350  C032  FFE1         	movff	??_fonction_d_interruption,fsr1l
  2049   000354  0011               	retfie		f
  2050   000356                     __end_of_fonction_d_interruption:
  2051                           	callstack 0
  2052                           
  2053 ;; *************** function _tache6 *****************
  2054 ;; Defined at:
  2055 ;;		line 3 in file "T6.c"
  2056 ;; Parameters:    Size  Location     Type
  2057 ;;		None
  2058 ;; Auto vars:     Size  Location     Type
  2059 ;;  n               1    8[COMRAM] unsigned char 
  2060 ;; Return value:  Size  Location     Type
  2061 ;;                  1    wreg      void 
  2062 ;; Registers used:
  2063 ;;		wreg, fsr2l, fsr2h, status,2, status,0, cstack
  2064 ;; Tracked objects:
  2065 ;;		On entry : 0/0
  2066 ;;		On exit  : 0/0
  2067 ;;		Unchanged: 0/0
  2068 ;; Data sizes:     COMRAM   BANK0   BANK1   BANK2   BANK3   BANK4   BANK5   BANK6   BANK7   BANK8   BANK9  BANK10  BANK1
      +1  BANK12  BANK13  BANK14  BANK15
  2069 ;;      Params:         0       0       0       0       0       0       0       0       0       0       0       0       
      +0       0       0       0       0
  2070 ;;      Locals:         1       0       0       0       0       0       0       0       0       0       0       0       
      +0       0       0       0       0
  2071 ;;      Temps:          0       0       0       0       0       0       0       0       0       0       0       0       
      +0       0       0       0       0
  2072 ;;      Totals:         1       0       0       0       0       0       0       0       0       0       0       0       
      +0       0       0       0       0
  2073 ;;Total ram usage:        1 bytes
  2074 ;; Hardware stack levels used: 1
  2075 ;; Hardware stack levels required when called: 2
  2076 ;; This function calls:
  2077 ;;		_lecture_normale
  2078 ;; This function is called by:
  2079 ;;		_fonction_d_interruption
  2080 ;;		_initialisation_du_systeme
  2081 ;; This function uses a non-reentrant model
  2082 ;;
  2083                           
  2084                           	psect	text5
  2085   0023F0                     __ptext5:
  2086                           	callstack 0
  2087   0023F0                     _tache6:
  2088                           	callstack 26
  2089   0023F0                     i2l1068:
  2090   0023F0                     
  2091                           ;T6.c: 7:     {;T6.c: 8:         n=lecture_normale(badge);
  2092   0023F0  0E75               	movlw	117
  2093   0023F2  6E23               	movwf	lecture_normale@stid_id^0,c
  2094   0023F4  0E00               	movlw	0
  2095   0023F6  6E24               	movwf	(lecture_normale@stid_id+1)^0,c
  2096   0023F8  EC61  F00E         	call	_lecture_normale	;wreg free
  2097   0023FC  6E29               	movwf	tache6@n^0,c
  2098   0023FE                     
  2099                           ;T6.c: 9:         if (n>0)
  2100   0023FE  5029               	movf	tache6@n^0,w,c
  2101   002400  B4D8               	btfsc	status,2,c
  2102   002402  EF05  F012         	goto	i2u210_41
  2103   002406  EF07  F012         	goto	i2u210_40
  2104   00240A                     i2u210_41:
  2105   00240A  EF13  F012         	goto	i2l4541
  2106   00240E                     i2u210_40:
  2107   00240E                     
  2108                           ;T6.c: 10:         {;T6.c: 11:             if(n<10)
  2109   00240E  0E0A               	movlw	10
  2110   002410  6029               	cpfslt	tache6@n^0,c
  2111   002412  EF0D  F012         	goto	i2u211_41
  2112   002416  EF0F  F012         	goto	i2u211_40
  2113   00241A                     i2u211_41:
  2114   00241A  EF13  F012         	goto	i2l4541
  2115   00241E                     i2u211_40:
  2116   00241E                     
  2117                           ;T6.c: 12:             {;T6.c: 13:                 n_octet_badge=n;
  2118   00241E  C029  F07F         	movff	tache6@n,127
  2119                           
  2120                           ;T6.c: 14:             }
  2121   002422  EFF8  F011         	goto	i2l1068
  2122   002426                     i2l4541:
  2123                           
  2124                           ;T6.c: 16:             {;T6.c: 17:                 n_octet_badge=0;
  2125   002426  0E00               	movlw	0
  2126   002428  0100               	movlb	0	; () banked
  2127   00242A  6F7F               	movwf	127,b
  2128   00242C  EFF8  F011         	goto	i2l1068
  2129   002430  0012               	return		;funcret
  2130   002432                     __end_of_tache6:
  2131                           	callstack 0
  2132                           
  2133 ;; *************** function _lecture_normale *****************
  2134 ;; Defined at:
  2135 ;;		line 5 in file "stid.c"
  2136 ;; Parameters:    Size  Location     Type
  2137 ;;  stid_id         2    2[COMRAM] PTR unsigned char 
  2138 ;;		 -> badge(10), 
  2139 ;; Auto vars:     Size  Location     Type
  2140 ;;  octet           1    7[COMRAM] unsigned char 
  2141 ;;  n_bit           1    6[COMRAM] unsigned char 
  2142 ;;  n_octet         1    5[COMRAM] unsigned char 
  2143 ;;  temps_attent    1    4[COMRAM] unsigned char 
  2144 ;; Return value:  Size  Location     Type
  2145 ;;                  1    wreg      unsigned char 
  2146 ;; Registers used:
  2147 ;;		wreg, fsr2l, fsr2h, status,2, status,0, cstack
  2148 ;; Tracked objects:
  2149 ;;		On entry : 0/0
  2150 ;;		On exit  : 0/0
  2151 ;;		Unchanged: 0/0
  2152 ;; Data sizes:     COMRAM   BANK0   BANK1   BANK2   BANK3   BANK4   BANK5   BANK6   BANK7   BANK8   BANK9  BANK10  BANK1
      +1  BANK12  BANK13  BANK14  BANK15
  2153 ;;      Params:         2       0       0       0       0       0       0       0       0       0       0       0       
      +0       0       0       0       0
  2154 ;;      Locals:         4       0       0       0       0       0       0       0       0       0       0       0       
      +0       0       0       0       0
  2155 ;;      Temps:          0       0       0       0       0       0       0       0       0       0       0       0       
      +0       0       0       0       0
  2156 ;;      Totals:         6       0       0       0       0       0       0       0       0       0       0       0       
      +0       0       0       0       0
  2157 ;;Total ram usage:        6 bytes
  2158 ;; Hardware stack levels used: 1
  2159 ;; Hardware stack levels required when called: 1
  2160 ;; This function calls:
  2161 ;;		_stid_delai_us
  2162 ;; This function is called by:
  2163 ;;		_tache6
  2164 ;; This function uses a non-reentrant model
  2165 ;;
  2166                           
  2167                           	psect	text6
  2168   001CC2                     __ptext6:
  2169                           	callstack 0
  2170   001CC2                     _lecture_normale:
  2171                           	callstack 26
  2172   001CC2                     
  2173                           ;stid.c: 5: unsigned char lecture_normale(unsigned char * stid_id);stid.c: 6: {;stid.c: 
      +                          7:     unsigned char temps_attente,n_octet,n_bit,octet;;stid.c: 9:     TRISDbits.TRISD1=
      +                          1;
  2174   001CC2  8295               	bsf	149,1,c	;volatile
  2175                           
  2176                           ;stid.c: 10:     LATDbits.LATD3=0;
  2177   001CC4  968C               	bcf	140,3,c	;volatile
  2178                           
  2179                           ;stid.c: 11:     LATDbits.LATD2=0;
  2180   001CC6  948C               	bcf	140,2,c	;volatile
  2181   001CC8                     
  2182                           ;stid.c: 12:     stid_delai_us(100);
  2183   001CC8  0E00               	movlw	0
  2184   001CCA  6E22               	movwf	(stid_delai_us@isdu+1)^0,c
  2185   001CCC  0E64               	movlw	100
  2186   001CCE  6E21               	movwf	stid_delai_us@isdu^0,c
  2187   001CD0  ECD6  F012         	call	_stid_delai_us	;wreg free
  2188   001CD4                     
  2189                           ;stid.c: 13:     LATDbits.LATD3=1;
  2190   001CD4  868C               	bsf	140,3,c	;volatile
  2191   001CD6                     
  2192                           ;stid.c: 14:     temps_attente=0;
  2193   001CD6  0E00               	movlw	0
  2194   001CD8  6E25               	movwf	lecture_normale@temps_attente^0,c
  2195   001CDA                     i2l4099:
  2196                           
  2197                           ;stid.c: 16:     {;stid.c: 17:         stid_delai_us(1000);
  2198   001CDA  0E03               	movlw	3
  2199   001CDC  6E22               	movwf	(stid_delai_us@isdu+1)^0,c
  2200   001CDE  0EE8               	movlw	232
  2201   001CE0  6E21               	movwf	stid_delai_us@isdu^0,c
  2202   001CE2  ECD6  F012         	call	_stid_delai_us	;wreg free
  2203   001CE6                     
  2204                           ;stid.c: 18:         temps_attente++;
  2205   001CE6  2A25               	incf	lecture_normale@temps_attente^0,f,c
  2206   001CE8                     
  2207                           ;stid.c: 19:         if (PORTDbits.RD0==1)
  2208   001CE8  A083               	btfss	131,0,c	;volatile
  2209   001CEA  EF79  F00E         	goto	i2u183_41
  2210   001CEE  EF7B  F00E         	goto	i2u183_40
  2211   001CF2                     i2u183_41:
  2212   001CF2  EF7D  F00E         	goto	i2l4107
  2213   001CF6                     i2u183_40:
  2214   001CF6                     
  2215                           ;stid.c: 20:             temps_attente=65;
  2216   001CF6  0E41               	movlw	65
  2217   001CF8  6E25               	movwf	lecture_normale@temps_attente^0,c
  2218   001CFA                     i2l4107:
  2219                           
  2220                           ;stid.c: 21:     }
  2221   001CFA  0E40               	movlw	64
  2222   001CFC  6425               	cpfsgt	lecture_normale@temps_attente^0,c
  2223   001CFE  EF83  F00E         	goto	i2u184_41
  2224   001D02  EF85  F00E         	goto	i2u184_40
  2225   001D06                     i2u184_41:
  2226   001D06  EF6D  F00E         	goto	i2l4099
  2227   001D0A                     i2u184_40:
  2228   001D0A                     
  2229                           ;stid.c: 24:     if (PORTDbits.RD0==1)
  2230   001D0A  A083               	btfss	131,0,c	;volatile
  2231   001D0C  EF8A  F00E         	goto	i2u185_41
  2232   001D10  EF8C  F00E         	goto	i2u185_40
  2233   001D14                     i2u185_41:
  2234   001D14  EFCF  F00E         	goto	i2l4143
  2235   001D18                     i2u185_40:
  2236   001D18                     
  2237                           ;stid.c: 25:     {;stid.c: 26:         n_octet=0;
  2238   001D18  0E00               	movlw	0
  2239   001D1A  6E26               	movwf	lecture_normale@n_octet^0,c
  2240   001D1C                     i2l1532:
  2241                           
  2242                           ;stid.c: 29:         {;stid.c: 30:             octet=0;
  2243   001D1C  0E00               	movlw	0
  2244   001D1E  6E28               	movwf	lecture_normale@octet^0,c
  2245                           
  2246                           ;stid.c: 31:             for(n_bit=0;n_bit<8;n_bit++)
  2247   001D20  0E00               	movlw	0
  2248   001D22  6E27               	movwf	lecture_normale@n_bit^0,c
  2249   001D24                     i2l1533:
  2250                           
  2251                           ;stid.c: 32:             {;stid.c: 33:                 if (PORTDbits.RD1==1)
  2252   001D24  A283               	btfss	131,1,c	;volatile
  2253   001D26  EF97  F00E         	goto	i2u186_41
  2254   001D2A  EF99  F00E         	goto	i2u186_40
  2255   001D2E                     i2u186_41:
  2256   001D2E  EF9C  F00E         	goto	i2l1535
  2257   001D32                     i2u186_40:
  2258   001D32                     
  2259                           ;stid.c: 34:                     octet=(octet|0x01);
  2260   001D32  5028               	movf	lecture_normale@octet^0,w,c
  2261   001D34  0901               	iorlw	1
  2262   001D36  6E28               	movwf	lecture_normale@octet^0,c
  2263   001D38                     i2l1535:
  2264                           
  2265                           ;stid.c: 35:                 octet=octet<<1;
  2266   001D38  5028               	movf	lecture_normale@octet^0,w,c
  2267   001D3A  2428               	addwf	lecture_normale@octet^0,w,c
  2268   001D3C  6E28               	movwf	lecture_normale@octet^0,c
  2269   001D3E                     
  2270                           ;stid.c: 36:                 stid_delai_us(100);
  2271   001D3E  0E00               	movlw	0
  2272   001D40  6E22               	movwf	(stid_delai_us@isdu+1)^0,c
  2273   001D42  0E64               	movlw	100
  2274   001D44  6E21               	movwf	stid_delai_us@isdu^0,c
  2275   001D46  ECD6  F012         	call	_stid_delai_us	;wreg free
  2276   001D4A                     
  2277                           ;stid.c: 37:                 LATDbits.LATD2=1;
  2278   001D4A  848C               	bsf	140,2,c	;volatile
  2279   001D4C                     
  2280                           ;stid.c: 38:                 stid_delai_us(500);
  2281   001D4C  0E01               	movlw	1
  2282   001D4E  6E22               	movwf	(stid_delai_us@isdu+1)^0,c
  2283   001D50  0EF4               	movlw	244
  2284   001D52  6E21               	movwf	stid_delai_us@isdu^0,c
  2285   001D54  ECD6  F012         	call	_stid_delai_us	;wreg free
  2286   001D58                     
  2287                           ;stid.c: 39:                 LATDbits.LATD2=0;
  2288   001D58  948C               	bcf	140,2,c	;volatile
  2289   001D5A                     
  2290                           ;stid.c: 40:                 stid_delai_us(400);
  2291   001D5A  0E01               	movlw	1
  2292   001D5C  6E22               	movwf	(stid_delai_us@isdu+1)^0,c
  2293   001D5E  0E90               	movlw	144
  2294   001D60  6E21               	movwf	stid_delai_us@isdu^0,c
  2295   001D62  ECD6  F012         	call	_stid_delai_us	;wreg free
  2296   001D66                     
  2297                           ;stid.c: 41:             }
  2298   001D66  2A27               	incf	lecture_normale@n_bit^0,f,c
  2299   001D68  0E07               	movlw	7
  2300   001D6A  6427               	cpfsgt	lecture_normale@n_bit^0,c
  2301   001D6C  EFBA  F00E         	goto	i2u187_41
  2302   001D70  EFBC  F00E         	goto	i2u187_40
  2303   001D74                     i2u187_41:
  2304   001D74  EF92  F00E         	goto	i2l1533
  2305   001D78                     i2u187_40:
  2306   001D78                     
  2307                           ;stid.c: 42:             stid_id[n_octet]=octet;
  2308   001D78  5026               	movf	lecture_normale@n_octet^0,w,c
  2309   001D7A  2423               	addwf	lecture_normale@stid_id^0,w,c
  2310   001D7C  6ED9               	movwf	fsr2l,c
  2311   001D7E  0E00               	movlw	0
  2312   001D80  2024               	addwfc	(lecture_normale@stid_id+1)^0,w,c
  2313   001D82  6EDA               	movwf	fsr2h,c
  2314   001D84  C028  FFDF         	movff	lecture_normale@octet,indf2
  2315   001D88                     
  2316                           ;stid.c: 43:             n_octet++;
  2317   001D88  2A26               	incf	lecture_normale@n_octet^0,f,c
  2318   001D8A                     
  2319                           ;stid.c: 44:         }
  2320   001D8A  B083               	btfsc	131,0,c	;volatile
  2321   001D8C  EFCA  F00E         	goto	i2u188_41
  2322   001D90  EFCC  F00E         	goto	i2u188_40
  2323   001D94                     i2u188_41:
  2324   001D94  EF8E  F00E         	goto	i2l1532
  2325   001D98                     i2u188_40:
  2326   001D98                     
  2327                           ;stid.c: 47:         return n_octet;
  2328   001D98  5026               	movf	lecture_normale@n_octet^0,w,c
  2329   001D9A  EFD0  F00E         	goto	i2l1537
  2330   001D9E                     i2l4143:
  2331                           
  2332                           ;stid.c: 50:     {;stid.c: 51:         return 0;
  2333   001D9E  0E00               	movlw	0
  2334   001DA0                     i2l1537:
  2335   001DA0  0012               	return		;funcret
  2336   001DA2                     __end_of_lecture_normale:
  2337                           	callstack 0
  2338                           
  2339 ;; *************** function _stid_delai_us *****************
  2340 ;; Defined at:
  2341 ;;		line 56 in file "stid.c"
  2342 ;; Parameters:    Size  Location     Type
  2343 ;;  isdu            2    0[COMRAM] unsigned int 
  2344 ;; Auto vars:     Size  Location     Type
  2345 ;;		None
  2346 ;; Return value:  Size  Location     Type
  2347 ;;                  1    wreg      void 
  2348 ;; Registers used:
  2349 ;;		wreg, status,2, status,0
  2350 ;; Tracked objects:
  2351 ;;		On entry : 0/0
  2352 ;;		On exit  : 0/0
  2353 ;;		Unchanged: 0/0
  2354 ;; Data sizes:     COMRAM   BANK0   BANK1   BANK2   BANK3   BANK4   BANK5   BANK6   BANK7   BANK8   BANK9  BANK10  BANK1
      +1  BANK12  BANK13  BANK14  BANK15
  2355 ;;      Params:         2       0       0       0       0       0       0       0       0       0       0       0       
      +0       0       0       0       0
  2356 ;;      Locals:         0       0       0       0       0       0       0       0       0       0       0       0       
      +0       0       0       0       0
  2357 ;;      Temps:          0       0       0       0       0       0       0       0       0       0       0       0       
      +0       0       0       0       0
  2358 ;;      Totals:         2       0       0       0       0       0       0       0       0       0       0       0       
      +0       0       0       0       0
  2359 ;;Total ram usage:        2 bytes
  2360 ;; Hardware stack levels used: 1
  2361 ;; This function calls:
  2362 ;;		Nothing
  2363 ;; This function is called by:
  2364 ;;		_lecture_normale
  2365 ;; This function uses a non-reentrant model
  2366 ;;
  2367                           
  2368                           	psect	text7
  2369   0025AC                     __ptext7:
  2370                           	callstack 0
  2371   0025AC                     _stid_delai_us:
  2372                           	callstack 26
  2373   0025AC                     
  2374                           ;stid.c: 56: void stid_delai_us(unsigned int isdu);stid.c: 57: {;stid.c: 58:     while(i
      +                          sdu>0)
  2375   0025AC  EFDE  F012         	goto	i2l3871
  2376   0025B0                     i2l1542:
  2377                           
  2378                           ;stid.c: 59:     {;stid.c: 60:         __nop();__nop();__nop();
  2379   0025B0  0000               	nop	
  2380   0025B2  0000               	nop	
  2381   0025B4  0000               	nop	
  2382   0025B6                     
  2383                           ;stid.c: 61:         isdu--;
  2384   0025B6  0621               	decf	stid_delai_us@isdu^0,f,c
  2385   0025B8  A0D8               	btfss	status,0,c
  2386   0025BA  0622               	decf	(stid_delai_us@isdu+1)^0,f,c
  2387   0025BC                     i2l3871:
  2388                           
  2389                           ;stid.c: 58:     while(isdu>0)
  2390   0025BC  5021               	movf	stid_delai_us@isdu^0,w,c
  2391   0025BE  1022               	iorwf	(stid_delai_us@isdu+1)^0,w,c
  2392   0025C0  A4D8               	btfss	status,2,c
  2393   0025C2  EFE5  F012         	goto	i2u152_41
  2394   0025C6  EFE7  F012         	goto	i2u152_40
  2395   0025CA                     i2u152_41:
  2396   0025CA  EFD8  F012         	goto	i2l1542
  2397   0025CE                     i2u152_40:
  2398   0025CE  0012               	return		;funcret
  2399   0025D0                     __end_of_stid_delai_us:
  2400                           	callstack 0
  2401                           
  2402 ;; *************** function _tache5 *****************
  2403 ;; Defined at:
  2404 ;;		line 3 in file "T5.c"
  2405 ;; Parameters:    Size  Location     Type
  2406 ;;		None
  2407 ;; Auto vars:     Size  Location     Type
  2408 ;;  a               2    0[COMRAM] unsigned int 
  2409 ;; Return value:  Size  Location     Type
  2410 ;;                  1    wreg      void 
  2411 ;; Registers used:
  2412 ;;		wreg, status,2, status,0
  2413 ;; Tracked objects:
  2414 ;;		On entry : 0/0
  2415 ;;		On exit  : 0/0
  2416 ;;		Unchanged: 0/0
  2417 ;; Data sizes:     COMRAM   BANK0   BANK1   BANK2   BANK3   BANK4   BANK5   BANK6   BANK7   BANK8   BANK9  BANK10  BANK1
      +1  BANK12  BANK13  BANK14  BANK15
  2418 ;;      Params:         0       0       0       0       0       0       0       0       0       0       0       0       
      +0       0       0       0       0
  2419 ;;      Locals:         2       0       0       0       0       0       0       0       0       0       0       0       
      +0       0       0       0       0
  2420 ;;      Temps:          0       0       0       0       0       0       0       0       0       0       0       0       
      +0       0       0       0       0
  2421 ;;      Totals:         2       0       0       0       0       0       0       0       0       0       0       0       
      +0       0       0       0       0
  2422 ;;Total ram usage:        2 bytes
  2423 ;; Hardware stack levels used: 1
  2424 ;; This function calls:
  2425 ;;		Nothing
  2426 ;; This function is called by:
  2427 ;;		_fonction_d_interruption
  2428 ;;		_initialisation_du_systeme
  2429 ;; This function uses a non-reentrant model
  2430 ;;
  2431                           
  2432                           	psect	text8
  2433   0015E6                     __ptext8:
  2434                           	callstack 0
  2435   0015E6                     _tache5:
  2436                           	callstack 28
  2437   0015E6                     i2l884:
  2438   0015E6                     i2l885:
  2439   0015E6  A89E               	btfss	158,4,c	;volatile
  2440   0015E8  EFF8  F00A         	goto	i2u105_41
  2441   0015EC  EFFA  F00A         	goto	i2u105_40
  2442   0015F0                     i2u105_41:
  2443   0015F0  EFF3  F00A         	goto	i2l885
  2444   0015F4                     i2u105_40:
  2445   0015F4  0E74               	movlw	116
  2446   0015F6  6EAD               	movwf	173,c	;volatile
  2447   0015F8                     i2l888:
  2448   0015F8  A2AC               	btfss	172,1,c	;volatile
  2449   0015FA  EF01  F00B         	goto	i2u106_41
  2450   0015FE  EF03  F00B         	goto	i2u106_40
  2451   001602                     i2u106_41:
  2452   001602  EFFC  F00A         	goto	i2l888
  2453   001606                     i2u106_40:
  2454   001606                     i2l891:
  2455   001606  A89E               	btfss	158,4,c	;volatile
  2456   001608  EF08  F00B         	goto	i2u107_41
  2457   00160C  EF0A  F00B         	goto	i2u107_40
  2458   001610                     i2u107_41:
  2459   001610  EF03  F00B         	goto	i2l891
  2460   001614                     i2u107_40:
  2461   001614  0E61               	movlw	97
  2462   001616  6EAD               	movwf	173,c	;volatile
  2463   001618                     i2l894:
  2464   001618  A2AC               	btfss	172,1,c	;volatile
  2465   00161A  EF11  F00B         	goto	i2u108_41
  2466   00161E  EF13  F00B         	goto	i2u108_40
  2467   001622                     i2u108_41:
  2468   001622  EF0C  F00B         	goto	i2l894
  2469   001626                     i2u108_40:
  2470   001626                     i2l897:
  2471   001626  A89E               	btfss	158,4,c	;volatile
  2472   001628  EF18  F00B         	goto	i2u109_41
  2473   00162C  EF1A  F00B         	goto	i2u109_40
  2474   001630                     i2u109_41:
  2475   001630  EF13  F00B         	goto	i2l897
  2476   001634                     i2u109_40:
  2477   001634  0E63               	movlw	99
  2478   001636  6EAD               	movwf	173,c	;volatile
  2479   001638                     i2l900:
  2480   001638  A2AC               	btfss	172,1,c	;volatile
  2481   00163A  EF21  F00B         	goto	i2u110_41
  2482   00163E  EF23  F00B         	goto	i2u110_40
  2483   001642                     i2u110_41:
  2484   001642  EF1C  F00B         	goto	i2l900
  2485   001646                     i2u110_40:
  2486   001646                     i2l903:
  2487   001646  A89E               	btfss	158,4,c	;volatile
  2488   001648  EF28  F00B         	goto	i2u111_41
  2489   00164C  EF2A  F00B         	goto	i2u111_40
  2490   001650                     i2u111_41:
  2491   001650  EF23  F00B         	goto	i2l903
  2492   001654                     i2u111_40:
  2493   001654  0E68               	movlw	104
  2494   001656  6EAD               	movwf	173,c	;volatile
  2495   001658                     i2l906:
  2496   001658  A2AC               	btfss	172,1,c	;volatile
  2497   00165A  EF31  F00B         	goto	i2u112_41
  2498   00165E  EF33  F00B         	goto	i2u112_40
  2499   001662                     i2u112_41:
  2500   001662  EF2C  F00B         	goto	i2l906
  2501   001666                     i2u112_40:
  2502   001666                     i2l909:
  2503   001666  A89E               	btfss	158,4,c	;volatile
  2504   001668  EF38  F00B         	goto	i2u113_41
  2505   00166C  EF3A  F00B         	goto	i2u113_40
  2506   001670                     i2u113_41:
  2507   001670  EF33  F00B         	goto	i2l909
  2508   001674                     i2u113_40:
  2509   001674  0E65               	movlw	101
  2510   001676  6EAD               	movwf	173,c	;volatile
  2511   001678                     i2l912:
  2512   001678  A2AC               	btfss	172,1,c	;volatile
  2513   00167A  EF41  F00B         	goto	i2u114_41
  2514   00167E  EF43  F00B         	goto	i2u114_40
  2515   001682                     i2u114_41:
  2516   001682  EF3C  F00B         	goto	i2l912
  2517   001686                     i2u114_40:
  2518   001686                     i2l915:
  2519   001686  A89E               	btfss	158,4,c	;volatile
  2520   001688  EF48  F00B         	goto	i2u115_41
  2521   00168C  EF4A  F00B         	goto	i2u115_40
  2522   001690                     i2u115_41:
  2523   001690  EF43  F00B         	goto	i2l915
  2524   001694                     i2u115_40:
  2525   001694  0E35               	movlw	53
  2526   001696  6EAD               	movwf	173,c	;volatile
  2527   001698                     i2l918:
  2528   001698  A2AC               	btfss	172,1,c	;volatile
  2529   00169A  EF51  F00B         	goto	i2u116_41
  2530   00169E  EF53  F00B         	goto	i2u116_40
  2531   0016A2                     i2u116_41:
  2532   0016A2  EF4C  F00B         	goto	i2l918
  2533   0016A6                     i2u116_40:
  2534   0016A6                     i2l921:
  2535   0016A6  A89E               	btfss	158,4,c	;volatile
  2536   0016A8  EF58  F00B         	goto	i2u117_41
  2537   0016AC  EF5A  F00B         	goto	i2u117_40
  2538   0016B0                     i2u117_41:
  2539   0016B0  EF53  F00B         	goto	i2l921
  2540   0016B4                     i2u117_40:
  2541   0016B4  0E5F               	movlw	95
  2542   0016B6  6EAD               	movwf	173,c	;volatile
  2543   0016B8                     i2l924:
  2544   0016B8  A2AC               	btfss	172,1,c	;volatile
  2545   0016BA  EF61  F00B         	goto	i2u118_41
  2546   0016BE  EF63  F00B         	goto	i2u118_40
  2547   0016C2                     i2u118_41:
  2548   0016C2  EF5C  F00B         	goto	i2l924
  2549   0016C6                     i2u118_40:
  2550   0016C6                     i2l927:
  2551   0016C6  A89E               	btfss	158,4,c	;volatile
  2552   0016C8  EF68  F00B         	goto	i2u119_41
  2553   0016CC  EF6A  F00B         	goto	i2u119_40
  2554   0016D0                     i2u119_41:
  2555   0016D0  EF63  F00B         	goto	i2l927
  2556   0016D4                     i2u119_40:
  2557   0016D4  0E65               	movlw	101
  2558   0016D6  6EAD               	movwf	173,c	;volatile
  2559   0016D8                     i2l930:
  2560   0016D8  A2AC               	btfss	172,1,c	;volatile
  2561   0016DA  EF71  F00B         	goto	i2u120_41
  2562   0016DE  EF73  F00B         	goto	i2u120_40
  2563   0016E2                     i2u120_41:
  2564   0016E2  EF6C  F00B         	goto	i2l930
  2565   0016E6                     i2u120_40:
  2566   0016E6                     i2l933:
  2567   0016E6  A89E               	btfss	158,4,c	;volatile
  2568   0016E8  EF78  F00B         	goto	i2u121_41
  2569   0016EC  EF7A  F00B         	goto	i2u121_40
  2570   0016F0                     i2u121_41:
  2571   0016F0  EF73  F00B         	goto	i2l933
  2572   0016F4                     i2u121_40:
  2573   0016F4  0E6E               	movlw	110
  2574   0016F6  6EAD               	movwf	173,c	;volatile
  2575   0016F8                     i2l936:
  2576   0016F8  A2AC               	btfss	172,1,c	;volatile
  2577   0016FA  EF81  F00B         	goto	i2u122_41
  2578   0016FE  EF83  F00B         	goto	i2u122_40
  2579   001702                     i2u122_41:
  2580   001702  EF7C  F00B         	goto	i2l936
  2581   001706                     i2u122_40:
  2582   001706                     i2l939:
  2583   001706  A89E               	btfss	158,4,c	;volatile
  2584   001708  EF88  F00B         	goto	i2u123_41
  2585   00170C  EF8A  F00B         	goto	i2u123_40
  2586   001710                     i2u123_41:
  2587   001710  EF83  F00B         	goto	i2l939
  2588   001714                     i2u123_40:
  2589   001714  0E5F               	movlw	95
  2590   001716  6EAD               	movwf	173,c	;volatile
  2591   001718                     i2l942:
  2592   001718  A2AC               	btfss	172,1,c	;volatile
  2593   00171A  EF91  F00B         	goto	i2u124_41
  2594   00171E  EF93  F00B         	goto	i2u124_40
  2595   001722                     i2u124_41:
  2596   001722  EF8C  F00B         	goto	i2l942
  2597   001726                     i2u124_40:
  2598   001726                     i2l945:
  2599   001726  A89E               	btfss	158,4,c	;volatile
  2600   001728  EF98  F00B         	goto	i2u125_41
  2601   00172C  EF9A  F00B         	goto	i2u125_40
  2602   001730                     i2u125_41:
  2603   001730  EF93  F00B         	goto	i2l945
  2604   001734                     i2u125_40:
  2605   001734  0E63               	movlw	99
  2606   001736  6EAD               	movwf	173,c	;volatile
  2607   001738                     i2l948:
  2608   001738  A2AC               	btfss	172,1,c	;volatile
  2609   00173A  EFA1  F00B         	goto	i2u126_41
  2610   00173E  EFA3  F00B         	goto	i2u126_40
  2611   001742                     i2u126_41:
  2612   001742  EF9C  F00B         	goto	i2l948
  2613   001746                     i2u126_40:
  2614   001746                     i2l951:
  2615   001746  A89E               	btfss	158,4,c	;volatile
  2616   001748  EFA8  F00B         	goto	i2u127_41
  2617   00174C  EFAA  F00B         	goto	i2u127_40
  2618   001750                     i2u127_41:
  2619   001750  EFA3  F00B         	goto	i2l951
  2620   001754                     i2u127_40:
  2621   001754  0E6F               	movlw	111
  2622   001756  6EAD               	movwf	173,c	;volatile
  2623   001758                     i2l954:
  2624   001758  A2AC               	btfss	172,1,c	;volatile
  2625   00175A  EFB1  F00B         	goto	i2u128_41
  2626   00175E  EFB3  F00B         	goto	i2u128_40
  2627   001762                     i2u128_41:
  2628   001762  EFAC  F00B         	goto	i2l954
  2629   001766                     i2u128_40:
  2630   001766                     i2l957:
  2631   001766  A89E               	btfss	158,4,c	;volatile
  2632   001768  EFB8  F00B         	goto	i2u129_41
  2633   00176C  EFBA  F00B         	goto	i2u129_40
  2634   001770                     i2u129_41:
  2635   001770  EFB3  F00B         	goto	i2l957
  2636   001774                     i2u129_40:
  2637   001774  0E75               	movlw	117
  2638   001776  6EAD               	movwf	173,c	;volatile
  2639   001778                     i2l960:
  2640   001778  A2AC               	btfss	172,1,c	;volatile
  2641   00177A  EFC1  F00B         	goto	i2u130_41
  2642   00177E  EFC3  F00B         	goto	i2u130_40
  2643   001782                     i2u130_41:
  2644   001782  EFBC  F00B         	goto	i2l960
  2645   001786                     i2u130_40:
  2646   001786                     i2l963:
  2647   001786  A89E               	btfss	158,4,c	;volatile
  2648   001788  EFC8  F00B         	goto	i2u131_41
  2649   00178C  EFCA  F00B         	goto	i2u131_40
  2650   001790                     i2u131_41:
  2651   001790  EFC3  F00B         	goto	i2l963
  2652   001794                     i2u131_40:
  2653   001794  0E72               	movlw	114
  2654   001796  6EAD               	movwf	173,c	;volatile
  2655   001798                     i2l966:
  2656   001798  A2AC               	btfss	172,1,c	;volatile
  2657   00179A  EFD1  F00B         	goto	i2u132_41
  2658   00179E  EFD3  F00B         	goto	i2u132_40
  2659   0017A2                     i2u132_41:
  2660   0017A2  EFCC  F00B         	goto	i2l966
  2661   0017A6                     i2u132_40:
  2662   0017A6                     i2l969:
  2663   0017A6  A89E               	btfss	158,4,c	;volatile
  2664   0017A8  EFD8  F00B         	goto	i2u133_41
  2665   0017AC  EFDA  F00B         	goto	i2u133_40
  2666   0017B0                     i2u133_41:
  2667   0017B0  EFD3  F00B         	goto	i2l969
  2668   0017B4                     i2u133_40:
  2669   0017B4  0E73               	movlw	115
  2670   0017B6  6EAD               	movwf	173,c	;volatile
  2671   0017B8                     i2l972:
  2672   0017B8  A2AC               	btfss	172,1,c	;volatile
  2673   0017BA  EFE1  F00B         	goto	i2u134_41
  2674   0017BE  EFE3  F00B         	goto	i2u134_40
  2675   0017C2                     i2u134_41:
  2676   0017C2  EFDC  F00B         	goto	i2l972
  2677   0017C6                     i2u134_40:
  2678   0017C6                     
  2679                           ;T5.c: 28:         for (a=0;a<65000;a++)
  2680   0017C6  0E00               	movlw	0
  2681   0017C8  6E22               	movwf	(tache5@a+1)^0,c
  2682   0017CA  0E00               	movlw	0
  2683   0017CC  6E21               	movwf	tache5@a^0,c
  2684   0017CE                     i2l3321:
  2685                           
  2686                           ;T5.c: 29:             ;
  2687   0017CE  4A21               	infsnz	tache5@a^0,f,c
  2688   0017D0  2A22               	incf	(tache5@a+1)^0,f,c
  2689   0017D2  0EE8               	movlw	232
  2690   0017D4  5C21               	subwf	tache5@a^0,w,c
  2691   0017D6  0EFD               	movlw	253
  2692   0017D8  5822               	subwfb	(tache5@a+1)^0,w,c
  2693   0017DA  A0D8               	btfss	status,0,c
  2694   0017DC  EFF2  F00B         	goto	i2u135_41
  2695   0017E0  EFF4  F00B         	goto	i2u135_40
  2696   0017E4                     i2u135_41:
  2697   0017E4  EFE7  F00B         	goto	i2l3321
  2698   0017E8                     i2u135_40:
  2699   0017E8                     
  2700                           ;T5.c: 30:         for (a=0;a<65000;a++)
  2701   0017E8  0E00               	movlw	0
  2702   0017EA  6E22               	movwf	(tache5@a+1)^0,c
  2703   0017EC  0E00               	movlw	0
  2704   0017EE  6E21               	movwf	tache5@a^0,c
  2705   0017F0                     i2l3331:
  2706                           
  2707                           ;T5.c: 31:             ;
  2708   0017F0  4A21               	infsnz	tache5@a^0,f,c
  2709   0017F2  2A22               	incf	(tache5@a+1)^0,f,c
  2710   0017F4  0EE8               	movlw	232
  2711   0017F6  5C21               	subwf	tache5@a^0,w,c
  2712   0017F8  0EFD               	movlw	253
  2713   0017FA  5822               	subwfb	(tache5@a+1)^0,w,c
  2714   0017FC  A0D8               	btfss	status,0,c
  2715   0017FE  EF03  F00C         	goto	i2u136_41
  2716   001802  EF05  F00C         	goto	i2u136_40
  2717   001806                     i2u136_41:
  2718   001806  EFF8  F00B         	goto	i2l3331
  2719   00180A                     i2u136_40:
  2720   00180A  EFF3  F00A         	goto	i2l884
  2721   00180E  0012               	return		;funcret
  2722   001810                     __end_of_tache5:
  2723                           	callstack 0
  2724                           
  2725 ;; *************** function _tache4 *****************
  2726 ;; Defined at:
  2727 ;;		line 5 in file "T4.c"
  2728 ;; Parameters:    Size  Location     Type
  2729 ;;		None
  2730 ;; Auto vars:     Size  Location     Type
  2731 ;;		None
  2732 ;; Return value:  Size  Location     Type
  2733 ;;                  1    wreg      void 
  2734 ;; Registers used:
  2735 ;;		wreg, status,2, status,0, cstack
  2736 ;; Tracked objects:
  2737 ;;		On entry : 0/0
  2738 ;;		On exit  : 0/0
  2739 ;;		Unchanged: 0/0
  2740 ;; Data sizes:     COMRAM   BANK0   BANK1   BANK2   BANK3   BANK4   BANK5   BANK6   BANK7   BANK8   BANK9  BANK10  BANK1
      +1  BANK12  BANK13  BANK14  BANK15
  2741 ;;      Params:         0       0       0       0       0       0       0       0       0       0       0       0       
      +0       0       0       0       0
  2742 ;;      Locals:         0       0       0       0       0       0       0       0       0       0       0       0       
      +0       0       0       0       0
  2743 ;;      Temps:          1       0       0       0       0       0       0       0       0       0       0       0       
      +0       0       0       0       0
  2744 ;;      Totals:         1       0       0       0       0       0       0       0       0       0       0       0       
      +0       0       0       0       0
  2745 ;;Total ram usage:        1 bytes
  2746 ;; Hardware stack levels used: 1
  2747 ;; Hardware stack levels required when called: 1
  2748 ;; This function calls:
  2749 ;;		_lecture_8bit_analogique
  2750 ;; This function is called by:
  2751 ;;		_fonction_d_interruption
  2752 ;;		_initialisation_du_systeme
  2753 ;; This function uses a non-reentrant model
  2754 ;;
  2755                           
  2756                           	psect	text9
  2757   001AAE                     __ptext9:
  2758                           	callstack 0
  2759   001AAE                     _tache4:
  2760                           	callstack 27
  2761   001AAE                     
  2762                           ;T4.c: 8:     if(PORTBbits.RB2 == 1 && n_octet_badge != 0)
  2763   001AAE  A481               	btfss	129,2,c	;volatile
  2764   001AB0  EF5C  F00D         	goto	i2u93_41
  2765   001AB4  EF5E  F00D         	goto	i2u93_40
  2766   001AB8                     i2u93_41:
  2767   001AB8  EF6B  F00D         	goto	i2l3245
  2768   001ABC                     i2u93_40:
  2769   001ABC  0100               	movlb	0	; () banked
  2770   001ABE  517F               	movf	127,w,b
  2771   001AC0  B4D8               	btfsc	status,2,c
  2772   001AC2  EF65  F00D         	goto	i2u94_41
  2773   001AC6  EF67  F00D         	goto	i2u94_40
  2774   001ACA                     i2u94_41:
  2775   001ACA  EF6B  F00D         	goto	i2l3245
  2776   001ACE                     i2u94_40:
  2777   001ACE                     
  2778                           ; BSR set to: 0
  2779                           ;T4.c: 9:     {;T4.c: 10:         ENGINE = 1;
  2780   001ACE  0E01               	movlw	1
  2781   001AD0  6E45               	movwf	_ENGINE^0,c
  2782                           
  2783                           ;T4.c: 11:     }
  2784   001AD2  EF6D  F00D         	goto	i2l3247
  2785   001AD6                     i2l3245:
  2786                           
  2787                           ;T4.c: 13:     {;T4.c: 14:         ENGINE = 0;
  2788   001AD6  0E00               	movlw	0
  2789   001AD8  6E45               	movwf	_ENGINE^0,c
  2790   001ADA                     i2l3247:
  2791                           
  2792                           ;T4.c: 18:     if(PORTEbits.RE4 == 0)
  2793   001ADA  B884               	btfsc	132,4,c	;volatile
  2794   001ADC  EF72  F00D         	goto	i2u95_41
  2795   001AE0  EF74  F00D         	goto	i2u95_40
  2796   001AE4                     i2u95_41:
  2797   001AE4  EF78  F00D         	goto	i2l3251
  2798   001AE8                     i2u95_40:
  2799   001AE8                     
  2800                           ;T4.c: 19:     {;T4.c: 20:         HANDBRAKE = 0;
  2801   001AE8  0E00               	movlw	0
  2802   001AEA  6E4F               	movwf	_HANDBRAKE^0,c
  2803                           
  2804                           ;T4.c: 21:     }
  2805   001AEC  EF7A  F00D         	goto	i2l3253
  2806   001AF0                     i2l3251:
  2807                           
  2808                           ;T4.c: 23:     {;T4.c: 24:         HANDBRAKE = 1;
  2809   001AF0  0E01               	movlw	1
  2810   001AF2  6E4F               	movwf	_HANDBRAKE^0,c
  2811   001AF4                     i2l3253:
  2812                           
  2813                           ;T4.c: 28:     if(ENGINE == 1 && HANDBRAKE == 0 && PORTBbits.RB0 == 0)
  2814   001AF4  0445               	decf	_ENGINE^0,w,c
  2815   001AF6  A4D8               	btfss	status,2,c
  2816   001AF8  EF80  F00D         	goto	i2u96_41
  2817   001AFC  EF82  F00D         	goto	i2u96_40
  2818   001B00                     i2u96_41:
  2819   001B00  EF97  F00D         	goto	i2l3261
  2820   001B04                     i2u96_40:
  2821   001B04  504F               	movf	_HANDBRAKE^0,w,c
  2822   001B06  A4D8               	btfss	status,2,c
  2823   001B08  EF88  F00D         	goto	i2u97_41
  2824   001B0C  EF8A  F00D         	goto	i2u97_40
  2825   001B10                     i2u97_41:
  2826   001B10  EF97  F00D         	goto	i2l3261
  2827   001B14                     i2u97_40:
  2828   001B14  B081               	btfsc	129,0,c	;volatile
  2829   001B16  EF8F  F00D         	goto	i2u98_41
  2830   001B1A  EF91  F00D         	goto	i2u98_40
  2831   001B1E                     i2u98_41:
  2832   001B1E  EF97  F00D         	goto	i2l3261
  2833   001B22                     i2u98_40:
  2834   001B22                     
  2835                           ;T4.c: 29:     {;T4.c: 30:         DRIVE = 1;
  2836   001B22  0E00               	movlw	0
  2837   001B24  6E44               	movwf	(_DRIVE+1)^0,c
  2838   001B26  0E01               	movlw	1
  2839   001B28  6E43               	movwf	_DRIVE^0,c
  2840                           
  2841                           ;T4.c: 31:     }
  2842   001B2A  EFB8  F00D         	goto	i2l3271
  2843   001B2E                     i2l3261:
  2844   001B2E  0445               	decf	_ENGINE^0,w,c
  2845   001B30  A4D8               	btfss	status,2,c
  2846   001B32  EF9D  F00D         	goto	i2u99_41
  2847   001B36  EF9F  F00D         	goto	i2u99_40
  2848   001B3A                     i2u99_41:
  2849   001B3A  EFB4  F00D         	goto	i2l3269
  2850   001B3E                     i2u99_40:
  2851   001B3E  504F               	movf	_HANDBRAKE^0,w,c
  2852   001B40  A4D8               	btfss	status,2,c
  2853   001B42  EFA5  F00D         	goto	i2u100_41
  2854   001B46  EFA7  F00D         	goto	i2u100_40
  2855   001B4A                     i2u100_41:
  2856   001B4A  EFB4  F00D         	goto	i2l3269
  2857   001B4E                     i2u100_40:
  2858   001B4E  B281               	btfsc	129,1,c	;volatile
  2859   001B50  EFAC  F00D         	goto	i2u101_41
  2860   001B54  EFAE  F00D         	goto	i2u101_40
  2861   001B58                     i2u101_41:
  2862   001B58  EFB4  F00D         	goto	i2l3269
  2863   001B5C                     i2u101_40:
  2864   001B5C                     
  2865                           ;T4.c: 33:     {;T4.c: 34:         DRIVE = 2;
  2866   001B5C  0E00               	movlw	0
  2867   001B5E  6E44               	movwf	(_DRIVE+1)^0,c
  2868   001B60  0E02               	movlw	2
  2869   001B62  6E43               	movwf	_DRIVE^0,c
  2870                           
  2871                           ;T4.c: 35:     }
  2872   001B64  EFB8  F00D         	goto	i2l3271
  2873   001B68                     i2l3269:
  2874                           
  2875                           ;T4.c: 37:     {;T4.c: 38:         DRIVE = 0;
  2876   001B68  0E00               	movlw	0
  2877   001B6A  6E44               	movwf	(_DRIVE+1)^0,c
  2878   001B6C  0E00               	movlw	0
  2879   001B6E  6E43               	movwf	_DRIVE^0,c
  2880   001B70                     i2l3271:
  2881                           
  2882                           ;T4.c: 42:     if(lecture_8bit_analogique(10) <= 83)
  2883   001B70  0E0A               	movlw	10
  2884   001B72  ECAF  F011         	call	_lecture_8bit_analogique
  2885   001B76  6E23               	movwf	??_tache4^0,c
  2886   001B78  0E54               	movlw	84
  2887   001B7A  6023               	cpfslt	??_tache4^0,c
  2888   001B7C  EFC2  F00D         	goto	i2u102_41
  2889   001B80  EFC4  F00D         	goto	i2u102_40
  2890   001B84                     i2u102_41:
  2891   001B84  EFCA  F00D         	goto	i2l3275
  2892   001B88                     i2u102_40:
  2893   001B88                     
  2894                           ;T4.c: 43:     {;T4.c: 44:         WHEELDIRECTION = 2;
  2895   001B88  0E00               	movlw	0
  2896   001B8A  6E40               	movwf	(_WHEELDIRECTION+1)^0,c
  2897   001B8C  0E02               	movlw	2
  2898   001B8E  6E3F               	movwf	_WHEELDIRECTION^0,c
  2899                           
  2900                           ;T4.c: 45:     }
  2901   001B90  EFE0  F00D         	goto	i2l3281
  2902   001B94                     i2l3275:
  2903   001B94  0E0A               	movlw	10
  2904   001B96  ECAF  F011         	call	_lecture_8bit_analogique
  2905   001B9A  6E23               	movwf	??_tache4^0,c
  2906   001B9C  0EAC               	movlw	172
  2907   001B9E  6423               	cpfsgt	??_tache4^0,c
  2908   001BA0  EFD4  F00D         	goto	i2u103_41
  2909   001BA4  EFD6  F00D         	goto	i2u103_40
  2910   001BA8                     i2u103_41:
  2911   001BA8  EFDC  F00D         	goto	i2l3279
  2912   001BAC                     i2u103_40:
  2913   001BAC                     
  2914                           ;T4.c: 47:     {;T4.c: 48:         WHEELDIRECTION = 1;
  2915   001BAC  0E00               	movlw	0
  2916   001BAE  6E40               	movwf	(_WHEELDIRECTION+1)^0,c
  2917   001BB0  0E01               	movlw	1
  2918   001BB2  6E3F               	movwf	_WHEELDIRECTION^0,c
  2919                           
  2920                           ;T4.c: 49:     }
  2921   001BB4  EFE0  F00D         	goto	i2l3281
  2922   001BB8                     i2l3279:
  2923                           
  2924                           ;T4.c: 51:     {;T4.c: 52:         WHEELDIRECTION = 0;
  2925   001BB8  0E00               	movlw	0
  2926   001BBA  6E40               	movwf	(_WHEELDIRECTION+1)^0,c
  2927   001BBC  0E00               	movlw	0
  2928   001BBE  6E3F               	movwf	_WHEELDIRECTION^0,c
  2929   001BC0                     i2l3281:
  2930                           
  2931                           ;T4.c: 56:     {;T4.c: 57:         if(PORTBbits.RB1 == 0)
  2932   001BC0  B281               	btfsc	129,1,c	;volatile
  2933   001BC2  EFE5  F00D         	goto	i2u104_41
  2934   001BC6  EFE7  F00D         	goto	i2u104_40
  2935   001BCA                     i2u104_41:
  2936   001BCA  EFEB  F00D         	goto	i2l789
  2937   001BCE                     i2u104_40:
  2938   001BCE                     
  2939                           ;T4.c: 58:         {;T4.c: 59:             LATJbits.LATJ7 = 1;
  2940   001BCE  8E91               	bsf	145,7,c	;volatile
  2941                           
  2942                           ;T4.c: 61:             LATJbits.LATJ7 = 0;
  2943   001BD0  9E91               	bcf	145,7,c	;volatile
  2944                           
  2945                           ;T4.c: 62:         }
  2946   001BD2  EFE0  F00D         	goto	i2l3281
  2947   001BD6                     i2l789:
  2948                           
  2949                           ;T4.c: 64:         {;T4.c: 65:             LATJbits.LATJ7 = 0;
  2950   001BD6  9E91               	bcf	145,7,c	;volatile
  2951   001BD8  EFE0  F00D         	goto	i2l3281
  2952   001BDC  0012               	return		;funcret
  2953   001BDE                     __end_of_tache4:
  2954                           	callstack 0
  2955                           
  2956 ;; *************** function _tache3 *****************
  2957 ;; Defined at:
  2958 ;;		line 3 in file "T3.c"
  2959 ;; Parameters:    Size  Location     Type
  2960 ;;		None
  2961 ;; Auto vars:     Size  Location     Type
  2962 ;;		None
  2963 ;; Return value:  Size  Location     Type
  2964 ;;                  1    wreg      void 
  2965 ;; Registers used:
  2966 ;;		wreg, status,2, status,0
  2967 ;; Tracked objects:
  2968 ;;		On entry : 0/0
  2969 ;;		On exit  : 0/0
  2970 ;;		Unchanged: 0/0
  2971 ;; Data sizes:     COMRAM   BANK0   BANK1   BANK2   BANK3   BANK4   BANK5   BANK6   BANK7   BANK8   BANK9  BANK10  BANK1
      +1  BANK12  BANK13  BANK14  BANK15
  2972 ;;      Params:         0       0       0       0       0       0       0       0       0       0       0       0       
      +0       0       0       0       0
  2973 ;;      Locals:         0       0       0       0       0       0       0       0       0       0       0       0       
      +0       0       0       0       0
  2974 ;;      Temps:          0       0       0       0       0       0       0       0       0       0       0       0       
      +0       0       0       0       0
  2975 ;;      Totals:         0       0       0       0       0       0       0       0       0       0       0       0       
      +0       0       0       0       0
  2976 ;;Total ram usage:        0 bytes
  2977 ;; Hardware stack levels used: 1
  2978 ;; This function calls:
  2979 ;;		Nothing
  2980 ;; This function is called by:
  2981 ;;		_fonction_d_interruption
  2982 ;;		_initialisation_du_systeme
  2983 ;; This function uses a non-reentrant model
  2984 ;;
  2985                           
  2986                           	psect	text10
  2987   001810                     __ptext10:
  2988                           	callstack 0
  2989   001810                     _tache3:
  2990                           	callstack 28
  2991   001810                     i2l668:
  2992   001810                     
  2993                           ;T3.c: 6:     {;T3.c: 7:         if (TP_appui==1)
  2994   001810  0100               	movlb	0	; () banked
  2995   001812  0566               	decf	102,w,b
  2996   001814  A4D8               	btfss	status,2,c
  2997   001816  EF0F  F00C         	goto	i2u72_41
  2998   00181A  EF11  F00C         	goto	i2u72_40
  2999   00181E                     i2u72_41:
  3000   00181E  EF43  F00C         	goto	i2l3203
  3001   001822                     i2u72_40:
  3002   001822                     
  3003                           ; BSR set to: 0
  3004                           ;T3.c: 8:         {;T3.c: 9:             if ((TP_x>=203)&&(TP_x<209))
  3005   001822  0ECA               	movlw	202
  3006   001824  6567               	cpfsgt	103,b
  3007   001826  EF17  F00C         	goto	i2u73_41
  3008   00182A  EF19  F00C         	goto	i2u73_40
  3009   00182E                     i2u73_41:
  3010   00182E  EF43  F00C         	goto	i2l3203
  3011   001832                     i2u73_40:
  3012   001832                     
  3013                           ; BSR set to: 0
  3014   001832  0ED1               	movlw	209
  3015   001834  6167               	cpfslt	103,b
  3016   001836  EF1F  F00C         	goto	i2u74_41
  3017   00183A  EF21  F00C         	goto	i2u74_40
  3018   00183E                     i2u74_41:
  3019   00183E  EF43  F00C         	goto	i2l3203
  3020   001842                     i2u74_40:
  3021   001842                     
  3022                           ; BSR set to: 0
  3023                           ;T3.c: 10:             {;T3.c: 11:                 if ((TP_y>=113)&&(TP_y<121))
  3024   001842  0E70               	movlw	112
  3025   001844  6568               	cpfsgt	104,b
  3026   001846  EF27  F00C         	goto	i2u75_41
  3027   00184A  EF29  F00C         	goto	i2u75_40
  3028   00184E                     i2u75_41:
  3029   00184E  EF32  F00C         	goto	i2l3197
  3030   001852                     i2u75_40:
  3031   001852                     
  3032                           ; BSR set to: 0
  3033   001852  0E79               	movlw	121
  3034   001854  6168               	cpfslt	104,b
  3035   001856  EF2F  F00C         	goto	i2u76_41
  3036   00185A  EF31  F00C         	goto	i2u76_40
  3037   00185E                     i2u76_41:
  3038   00185E  EF32  F00C         	goto	i2l3197
  3039   001862                     i2u76_40:
  3040   001862                     
  3041                           ; BSR set to: 0
  3042                           ;T3.c: 12:                 {;T3.c: 13:                     LATCbits.LATC2=1;
  3043   001862  848B               	bsf	139,2,c	;volatile
  3044   001864                     i2l3197:
  3045                           
  3046                           ; BSR set to: 0
  3047                           ;T3.c: 15:                 if ((TP_y>=121)&&(TP_y<127))
  3048   001864  0E78               	movlw	120
  3049   001866  6568               	cpfsgt	104,b
  3050   001868  EF38  F00C         	goto	i2u77_41
  3051   00186C  EF3A  F00C         	goto	i2u77_40
  3052   001870                     i2u77_41:
  3053   001870  EF43  F00C         	goto	i2l3203
  3054   001874                     i2u77_40:
  3055   001874                     
  3056                           ; BSR set to: 0
  3057   001874  0E7F               	movlw	127
  3058   001876  6168               	cpfslt	104,b
  3059   001878  EF40  F00C         	goto	i2u78_41
  3060   00187C  EF42  F00C         	goto	i2u78_40
  3061   001880                     i2u78_41:
  3062   001880  EF43  F00C         	goto	i2l3203
  3063   001884                     i2u78_40:
  3064   001884                     
  3065                           ; BSR set to: 0
  3066                           ;T3.c: 16:                 {;T3.c: 17:                     LATCbits.LATC2=0;
  3067   001884  948B               	bcf	139,2,c	;volatile
  3068   001886                     i2l3203:
  3069                           
  3070                           ; BSR set to: 0
  3071                           ;T3.c: 21:         if (TP_appui==1)
  3072   001886  0566               	decf	102,w,b
  3073   001888  A4D8               	btfss	status,2,c
  3074   00188A  EF49  F00C         	goto	i2u79_41
  3075   00188E  EF4B  F00C         	goto	i2u79_40
  3076   001892                     i2u79_41:
  3077   001892  EF7D  F00C         	goto	i2l3221
  3078   001896                     i2u79_40:
  3079   001896                     
  3080                           ; BSR set to: 0
  3081                           ;T3.c: 22:         {;T3.c: 23:             if ((TP_x>=215)&&(TP_x<221))
  3082   001896  0ED6               	movlw	214
  3083   001898  6567               	cpfsgt	103,b
  3084   00189A  EF51  F00C         	goto	i2u80_41
  3085   00189E  EF53  F00C         	goto	i2u80_40
  3086   0018A2                     i2u80_41:
  3087   0018A2  EF7D  F00C         	goto	i2l3221
  3088   0018A6                     i2u80_40:
  3089   0018A6                     
  3090                           ; BSR set to: 0
  3091   0018A6  0EDD               	movlw	221
  3092   0018A8  6167               	cpfslt	103,b
  3093   0018AA  EF59  F00C         	goto	i2u81_41
  3094   0018AE  EF5B  F00C         	goto	i2u81_40
  3095   0018B2                     i2u81_41:
  3096   0018B2  EF7D  F00C         	goto	i2l3221
  3097   0018B6                     i2u81_40:
  3098   0018B6                     
  3099                           ; BSR set to: 0
  3100                           ;T3.c: 24:             {;T3.c: 25:                 if ((TP_y>=113)&&(TP_y<121))
  3101   0018B6  0E70               	movlw	112
  3102   0018B8  6568               	cpfsgt	104,b
  3103   0018BA  EF61  F00C         	goto	i2u82_41
  3104   0018BE  EF63  F00C         	goto	i2u82_40
  3105   0018C2                     i2u82_41:
  3106   0018C2  EF6C  F00C         	goto	i2l3215
  3107   0018C6                     i2u82_40:
  3108   0018C6                     
  3109                           ; BSR set to: 0
  3110   0018C6  0E79               	movlw	121
  3111   0018C8  6168               	cpfslt	104,b
  3112   0018CA  EF69  F00C         	goto	i2u83_41
  3113   0018CE  EF6B  F00C         	goto	i2u83_40
  3114   0018D2                     i2u83_41:
  3115   0018D2  EF6C  F00C         	goto	i2l3215
  3116   0018D6                     i2u83_40:
  3117   0018D6                     
  3118                           ; BSR set to: 0
  3119                           ;T3.c: 26:                 {;T3.c: 27:                     LATCbits.LATC1=1;
  3120   0018D6  828B               	bsf	139,1,c	;volatile
  3121   0018D8                     i2l3215:
  3122                           
  3123                           ; BSR set to: 0
  3124                           ;T3.c: 29:                 if ((TP_y>=121)&&(TP_y<127))
  3125   0018D8  0E78               	movlw	120
  3126   0018DA  6568               	cpfsgt	104,b
  3127   0018DC  EF72  F00C         	goto	i2u84_41
  3128   0018E0  EF74  F00C         	goto	i2u84_40
  3129   0018E4                     i2u84_41:
  3130   0018E4  EF7D  F00C         	goto	i2l3221
  3131   0018E8                     i2u84_40:
  3132   0018E8                     
  3133                           ; BSR set to: 0
  3134   0018E8  0E7F               	movlw	127
  3135   0018EA  6168               	cpfslt	104,b
  3136   0018EC  EF7A  F00C         	goto	i2u85_41
  3137   0018F0  EF7C  F00C         	goto	i2u85_40
  3138   0018F4                     i2u85_41:
  3139   0018F4  EF7D  F00C         	goto	i2l3221
  3140   0018F8                     i2u85_40:
  3141   0018F8                     
  3142                           ; BSR set to: 0
  3143                           ;T3.c: 30:                 {;T3.c: 31:                     LATCbits.LATC1=0;
  3144   0018F8  928B               	bcf	139,1,c	;volatile
  3145   0018FA                     i2l3221:
  3146                           
  3147                           ; BSR set to: 0
  3148                           ;T3.c: 35:         if (TP_appui==1)
  3149   0018FA  0566               	decf	102,w,b
  3150   0018FC  A4D8               	btfss	status,2,c
  3151   0018FE  EF83  F00C         	goto	i2u86_41
  3152   001902  EF85  F00C         	goto	i2u86_40
  3153   001906                     i2u86_41:
  3154   001906  EF08  F00C         	goto	i2l668
  3155   00190A                     i2u86_40:
  3156   00190A                     
  3157                           ; BSR set to: 0
  3158                           ;T3.c: 36:         {;T3.c: 37:             if ((TP_x>=227)&&(TP_x<233))
  3159   00190A  0EE2               	movlw	226
  3160   00190C  6567               	cpfsgt	103,b
  3161   00190E  EF8B  F00C         	goto	i2u87_41
  3162   001912  EF8D  F00C         	goto	i2u87_40
  3163   001916                     i2u87_41:
  3164   001916  EF08  F00C         	goto	i2l668
  3165   00191A                     i2u87_40:
  3166   00191A                     
  3167                           ; BSR set to: 0
  3168   00191A  0EE9               	movlw	233
  3169   00191C  6167               	cpfslt	103,b
  3170   00191E  EF93  F00C         	goto	i2u88_41
  3171   001922  EF95  F00C         	goto	i2u88_40
  3172   001926                     i2u88_41:
  3173   001926  EF08  F00C         	goto	i2l668
  3174   00192A                     i2u88_40:
  3175   00192A                     
  3176                           ; BSR set to: 0
  3177                           ;T3.c: 38:             {;T3.c: 39:                 if ((TP_y>=113)&&(TP_y<121))
  3178   00192A  0E70               	movlw	112
  3179   00192C  6568               	cpfsgt	104,b
  3180   00192E  EF9B  F00C         	goto	i2u89_41
  3181   001932  EF9D  F00C         	goto	i2u89_40
  3182   001936                     i2u89_41:
  3183   001936  EFA6  F00C         	goto	i2l3233
  3184   00193A                     i2u89_40:
  3185   00193A                     
  3186                           ; BSR set to: 0
  3187   00193A  0E79               	movlw	121
  3188   00193C  6168               	cpfslt	104,b
  3189   00193E  EFA3  F00C         	goto	i2u90_41
  3190   001942  EFA5  F00C         	goto	i2u90_40
  3191   001946                     i2u90_41:
  3192   001946  EFA6  F00C         	goto	i2l3233
  3193   00194A                     i2u90_40:
  3194   00194A                     
  3195                           ; BSR set to: 0
  3196                           ;T3.c: 40:                 {;T3.c: 41:                     LATGbits.LATG0=1;
  3197   00194A  808F               	bsf	143,0,c	;volatile
  3198   00194C                     i2l3233:
  3199                           
  3200                           ; BSR set to: 0
  3201                           ;T3.c: 43:                 if ((TP_y>=121)&&(TP_y<127))
  3202   00194C  0E78               	movlw	120
  3203   00194E  6568               	cpfsgt	104,b
  3204   001950  EFAC  F00C         	goto	i2u91_41
  3205   001954  EFAE  F00C         	goto	i2u91_40
  3206   001958                     i2u91_41:
  3207   001958  EFB9  F00C         	goto	i2l677
  3208   00195C                     i2u91_40:
  3209   00195C                     
  3210                           ; BSR set to: 0
  3211   00195C  0E7F               	movlw	127
  3212   00195E  6168               	cpfslt	104,b
  3213   001960  EFB4  F00C         	goto	i2u92_41
  3214   001964  EFB6  F00C         	goto	i2u92_40
  3215   001968                     i2u92_41:
  3216   001968  EFB9  F00C         	goto	i2l677
  3217   00196C                     i2u92_40:
  3218   00196C                     
  3219                           ; BSR set to: 0
  3220                           ;T3.c: 44:                 {;T3.c: 45:                     LATGbits.LATG0=0;
  3221   00196C  908F               	bcf	143,0,c	;volatile
  3222   00196E  EF08  F00C         	goto	i2l668
  3223   001972                     i2l677:
  3224                           
  3225                           ; BSR set to: 0
  3226   001972  EF08  F00C         	goto	i2l668
  3227   001976  0012               	return		;funcret
  3228   001978                     __end_of_tache3:
  3229                           	callstack 0
  3230                           
  3231 ;; *************** function _tache2 *****************
  3232 ;; Defined at:
  3233 ;;		line 3 in file "T2.c"
  3234 ;; Parameters:    Size  Location     Type
  3235 ;;		None
  3236 ;; Auto vars:     Size  Location     Type
  3237 ;;  iy              2   11[COMRAM] unsigned int 
  3238 ;;  ix              2    9[COMRAM] unsigned int 
  3239 ;;  ly              1   16[COMRAM] unsigned char 
  3240 ;;  hy              1   15[COMRAM] unsigned char 
  3241 ;;  lx              1   14[COMRAM] unsigned char 
  3242 ;;  hx              1   13[COMRAM] unsigned char 
  3243 ;; Return value:  Size  Location     Type
  3244 ;;                  1    wreg      void 
  3245 ;; Registers used:
  3246 ;;		wreg, status,2, status,0, cstack
  3247 ;; Tracked objects:
  3248 ;;		On entry : 0/0
  3249 ;;		On exit  : 0/0
  3250 ;;		Unchanged: 0/0
  3251 ;; Data sizes:     COMRAM   BANK0   BANK1   BANK2   BANK3   BANK4   BANK5   BANK6   BANK7   BANK8   BANK9  BANK10  BANK1
      +1  BANK12  BANK13  BANK14  BANK15
  3252 ;;      Params:         0       0       0       0       0       0       0       0       0       0       0       0       
      +0       0       0       0       0
  3253 ;;      Locals:         8       0       0       0       0       0       0       0       0       0       0       0       
      +0       0       0       0       0
  3254 ;;      Temps:          2       0       0       0       0       0       0       0       0       0       0       0       
      +0       0       0       0       0
  3255 ;;      Totals:        10       0       0       0       0       0       0       0       0       0       0       0       
      +0       0       0       0       0
  3256 ;;Total ram usage:       10 bytes
  3257 ;; Hardware stack levels used: 1
  3258 ;; Hardware stack levels required when called: 1
  3259 ;; This function calls:
  3260 ;;		___lwdiv
  3261 ;;		_tp_delai
  3262 ;; This function is called by:
  3263 ;;		_fonction_d_interruption
  3264 ;;		_initialisation_du_systeme
  3265 ;; This function uses a non-reentrant model
  3266 ;;
  3267                           
  3268                           	psect	text11
  3269   001978                     __ptext11:
  3270                           	callstack 0
  3271   001978                     _tache2:
  3272                           	callstack 27
  3273   001978                     i2l4483:
  3274                           
  3275                           ;T2.c: 5:     unsigned char hx,lx,hy,ly;;T2.c: 6:     unsigned int ix,iy;;T2.c: 8:     T
      +                          P_appui=0;
  3276   001978  0E00               	movlw	0
  3277   00197A  0100               	movlb	0	; () banked
  3278   00197C  6F66               	movwf	102,b
  3279   00197E                     i2l4485:
  3280                           
  3281                           ; BSR set to: 0
  3282                           ;T2.c: 11:     {;T2.c: 12:         LATGbits.LATG3=1;
  3283   00197E  868F               	bsf	143,3,c	;volatile
  3284   001980                     
  3285                           ; BSR set to: 0
  3286                           ;T2.c: 13:         LATGbits.LATG4=0;
  3287   001980  988F               	bcf	143,4,c	;volatile
  3288   001982                     
  3289                           ; BSR set to: 0
  3290                           ;T2.c: 14:         tp_delai(3000);
  3291   001982  0E0B               	movlw	11
  3292   001984  6E22               	movwf	(tp_delai@itpd+1)^0,c
  3293   001986  0EB8               	movlw	184
  3294   001988  6E21               	movwf	tp_delai@itpd^0,c
  3295   00198A  ECE8  F012         	call	_tp_delai	;wreg free
  3296   00198E                     
  3297                           ;T2.c: 18:         ADCON2=0x16;
  3298   00198E  0E16               	movlw	22
  3299   001990  6EC0               	movwf	192,c	;volatile
  3300   001992                     
  3301                           ;T2.c: 19:         ADCON0=0x01;
  3302   001992  0E01               	movlw	1
  3303   001994  6EC2               	movwf	194,c	;volatile
  3304   001996                     
  3305                           ;T2.c: 20:         ADCON0=0x03;
  3306   001996  0E03               	movlw	3
  3307   001998  6EC2               	movwf	194,c	;volatile
  3308   00199A                     i2l559:
  3309                           
  3310                           ;T2.c: 21:         while(ADCON0bits.DONE==1)
  3311   00199A  B2C2               	btfsc	194,1,c	;volatile
  3312   00199C  EFD2  F00C         	goto	i2u204_41
  3313   0019A0  EFD4  F00C         	goto	i2u204_40
  3314   0019A4                     i2u204_41:
  3315   0019A4  EFCD  F00C         	goto	i2l559
  3316   0019A8                     i2u204_40:
  3317   0019A8                     
  3318                           ;T2.c: 23:         hx=ADRESH;
  3319   0019A8  CFC4 F02E          	movff	4036,tache2@hx	;volatile
  3320                           
  3321                           ;T2.c: 24:         lx=ADRESL;
  3322   0019AC  CFC3 F02F          	movff	4035,tache2@lx	;volatile
  3323   0019B0                     
  3324                           ;T2.c: 28:         if ((lx&0x0F)!=0){hx=0;lx=0;}
  3325   0019B0  C02F  F028         	movff	tache2@lx,??_tache2
  3326   0019B4  0E0F               	movlw	15
  3327   0019B6  1628               	andwf	??_tache2^0,f,c
  3328   0019B8  B4D8               	btfsc	status,2,c
  3329   0019BA  EFE1  F00C         	goto	i2u205_41
  3330   0019BE  EFE3  F00C         	goto	i2u205_40
  3331   0019C2                     i2u205_41:
  3332   0019C2  EFE7  F00C         	goto	i2l4501
  3333   0019C6                     i2u205_40:
  3334   0019C6  0E00               	movlw	0
  3335   0019C8  6E2E               	movwf	tache2@hx^0,c
  3336   0019CA  0E00               	movlw	0
  3337   0019CC  6E2F               	movwf	tache2@lx^0,c
  3338   0019CE                     i2l4501:
  3339                           
  3340                           ;T2.c: 31:         if (hx>=10)
  3341   0019CE  0E09               	movlw	9
  3342   0019D0  642E               	cpfsgt	tache2@hx^0,c
  3343   0019D2  EFED  F00C         	goto	i2u206_41
  3344   0019D6  EFEF  F00C         	goto	i2u206_40
  3345   0019DA                     i2u206_41:
  3346   0019DA  EFBC  F00C         	goto	i2l4483
  3347   0019DE                     i2u206_40:
  3348   0019DE                     
  3349                           ;T2.c: 32:         {;T2.c: 33:             LATGbits.LATG3=0;
  3350   0019DE  968F               	bcf	143,3,c	;volatile
  3351                           
  3352                           ;T2.c: 34:             LATGbits.LATG4=1;
  3353   0019E0  888F               	bsf	143,4,c	;volatile
  3354   0019E2                     
  3355                           ;T2.c: 35:             tp_delai(3000);
  3356   0019E2  0E0B               	movlw	11
  3357   0019E4  6E22               	movwf	(tp_delai@itpd+1)^0,c
  3358   0019E6  0EB8               	movlw	184
  3359   0019E8  6E21               	movwf	tp_delai@itpd^0,c
  3360   0019EA  ECE8  F012         	call	_tp_delai	;wreg free
  3361   0019EE                     
  3362                           ;T2.c: 39:             ADCON2=0x16;
  3363   0019EE  0E16               	movlw	22
  3364   0019F0  6EC0               	movwf	192,c	;volatile
  3365   0019F2                     
  3366                           ;T2.c: 40:             ADCON0=0x05;
  3367   0019F2  0E05               	movlw	5
  3368   0019F4  6EC2               	movwf	194,c	;volatile
  3369   0019F6                     
  3370                           ;T2.c: 41:             ADCON0=0x07;
  3371   0019F6  0E07               	movlw	7
  3372   0019F8  6EC2               	movwf	194,c	;volatile
  3373   0019FA                     i2l564:
  3374                           
  3375                           ;T2.c: 42:             while(ADCON0bits.DONE==1)
  3376   0019FA  B2C2               	btfsc	194,1,c	;volatile
  3377   0019FC  EF02  F00D         	goto	i2u207_41
  3378   001A00  EF04  F00D         	goto	i2u207_40
  3379   001A04                     i2u207_41:
  3380   001A04  EFFD  F00C         	goto	i2l564
  3381   001A08                     i2u207_40:
  3382   001A08                     
  3383                           ;T2.c: 44:             hy=ADRESH;
  3384   001A08  CFC4 F030          	movff	4036,tache2@hy	;volatile
  3385                           
  3386                           ;T2.c: 45:             ly=ADRESL;
  3387   001A0C  CFC3 F031          	movff	4035,tache2@ly	;volatile
  3388   001A10                     
  3389                           ;T2.c: 49:             if ((ly&0x0F)!=0){hy=0;ly=0;}
  3390   001A10  C031  F028         	movff	tache2@ly,??_tache2
  3391   001A14  0E0F               	movlw	15
  3392   001A16  1628               	andwf	??_tache2^0,f,c
  3393   001A18  B4D8               	btfsc	status,2,c
  3394   001A1A  EF11  F00D         	goto	i2u208_41
  3395   001A1E  EF13  F00D         	goto	i2u208_40
  3396   001A22                     i2u208_41:
  3397   001A22  EF17  F00D         	goto	i2l4517
  3398   001A26                     i2u208_40:
  3399   001A26  0E00               	movlw	0
  3400   001A28  6E30               	movwf	tache2@hy^0,c
  3401   001A2A  0E00               	movlw	0
  3402   001A2C  6E31               	movwf	tache2@ly^0,c
  3403   001A2E                     i2l4517:
  3404                           
  3405                           ;T2.c: 51:             if (hy>=20)
  3406   001A2E  0E13               	movlw	19
  3407   001A30  6430               	cpfsgt	tache2@hy^0,c
  3408   001A32  EF1D  F00D         	goto	i2u209_41
  3409   001A36  EF1F  F00D         	goto	i2u209_40
  3410   001A3A                     i2u209_41:
  3411   001A3A  EFBC  F00C         	goto	i2l4483
  3412   001A3E                     i2u209_40:
  3413   001A3E                     
  3414                           ;T2.c: 52:             {;T2.c: 53:                 ix=lx+(((unsigned int)(hx))<<8);
  3415   001A3E  502E               	movf	tache2@hx^0,w,c
  3416   001A40  6E28               	movwf	??_tache2^0,c
  3417   001A42  502F               	movf	tache2@lx^0,w,c
  3418   001A44  6E2A               	movwf	tache2@ix^0,c
  3419   001A46  C028  F02B         	movff	??_tache2,tache2@ix+1
  3420                           
  3421                           ;T2.c: 54:                 iy=ly+(((unsigned int)(hy))<<8);
  3422   001A4A  5030               	movf	tache2@hy^0,w,c
  3423   001A4C  6E28               	movwf	??_tache2^0,c
  3424   001A4E  5031               	movf	tache2@ly^0,w,c
  3425   001A50  6E2C               	movwf	tache2@iy^0,c
  3426   001A52  C028  F02D         	movff	??_tache2,tache2@iy+1
  3427   001A56                     
  3428                           ;T2.c: 55:                 ix=ix-3150;
  3429   001A56  0EB2               	movlw	178
  3430   001A58  242A               	addwf	tache2@ix^0,w,c
  3431   001A5A  6E2A               	movwf	tache2@ix^0,c
  3432   001A5C  0EF3               	movlw	243
  3433   001A5E  202B               	addwfc	(tache2@ix+1)^0,w,c
  3434   001A60  6E2B               	movwf	(tache2@ix+1)^0,c
  3435   001A62                     
  3436                           ;T2.c: 56:                 iy=iy-6500;
  3437   001A62  0E9C               	movlw	156
  3438   001A64  242C               	addwf	tache2@iy^0,w,c
  3439   001A66  6E2C               	movwf	tache2@iy^0,c
  3440   001A68  0EE6               	movlw	230
  3441   001A6A  202D               	addwfc	(tache2@iy+1)^0,w,c
  3442   001A6C  6E2D               	movwf	(tache2@iy+1)^0,c
  3443   001A6E                     
  3444                           ;T2.c: 58:                 TP_x=ix/246;
  3445   001A6E  C02A  F021         	movff	tache2@ix,___lwdiv@dividend
  3446   001A72  C02B  F022         	movff	tache2@ix+1,___lwdiv@dividend+1
  3447   001A76  0E00               	movlw	0
  3448   001A78  6E24               	movwf	(___lwdiv@divisor+1)^0,c
  3449   001A7A  0EF6               	movlw	246
  3450   001A7C  6E23               	movwf	___lwdiv@divisor^0,c
  3451   001A7E  ECB4  F010         	call	___lwdiv	;wreg free
  3452   001A82  5021               	movf	?___lwdiv^0,w,c
  3453   001A84  0100               	movlb	0	; () banked
  3454   001A86  6F67               	movwf	103,b
  3455   001A88                     
  3456                           ; BSR set to: 0
  3457                           ;T2.c: 59:                 TP_y=127-(iy/409);
  3458   001A88  C02C  F021         	movff	tache2@iy,___lwdiv@dividend
  3459   001A8C  C02D  F022         	movff	tache2@iy+1,___lwdiv@dividend+1
  3460   001A90  0E01               	movlw	1
  3461   001A92  6E24               	movwf	(___lwdiv@divisor+1)^0,c
  3462   001A94  0E99               	movlw	153
  3463   001A96  6E23               	movwf	___lwdiv@divisor^0,c
  3464   001A98  ECB4  F010         	call	___lwdiv	;wreg free
  3465   001A9C  5021               	movf	?___lwdiv^0,w,c
  3466   001A9E  087F               	sublw	127
  3467   001AA0  0100               	movlb	0	; () banked
  3468   001AA2  6F68               	movwf	104,b
  3469                           
  3470                           ;T2.c: 68:                 TP_appui=1;
  3471   001AA4  0E01               	movlw	1
  3472   001AA6  6F66               	movwf	102,b
  3473                           
  3474                           ;T2.c: 69:             }
  3475   001AA8  EFBF  F00C         	goto	i2l4485
  3476   001AAC  0012               	return		;funcret
  3477   001AAE                     __end_of_tache2:
  3478                           	callstack 0
  3479                           
  3480 ;; *************** function _tp_delai *****************
  3481 ;; Defined at:
  3482 ;;		line 82 in file "T2.c"
  3483 ;; Parameters:    Size  Location     Type
  3484 ;;  itpd            2    0[COMRAM] unsigned int 
  3485 ;; Auto vars:     Size  Location     Type
  3486 ;;		None
  3487 ;; Return value:  Size  Location     Type
  3488 ;;                  1    wreg      void 
  3489 ;; Registers used:
  3490 ;;		wreg, status,2, status,0
  3491 ;; Tracked objects:
  3492 ;;		On entry : 0/0
  3493 ;;		On exit  : 0/0
  3494 ;;		Unchanged: 0/0
  3495 ;; Data sizes:     COMRAM   BANK0   BANK1   BANK2   BANK3   BANK4   BANK5   BANK6   BANK7   BANK8   BANK9  BANK10  BANK1
      +1  BANK12  BANK13  BANK14  BANK15
  3496 ;;      Params:         2       0       0       0       0       0       0       0       0       0       0       0       
      +0       0       0       0       0
  3497 ;;      Locals:         0       0       0       0       0       0       0       0       0       0       0       0       
      +0       0       0       0       0
  3498 ;;      Temps:          0       0       0       0       0       0       0       0       0       0       0       0       
      +0       0       0       0       0
  3499 ;;      Totals:         2       0       0       0       0       0       0       0       0       0       0       0       
      +0       0       0       0       0
  3500 ;;Total ram usage:        2 bytes
  3501 ;; Hardware stack levels used: 1
  3502 ;; This function calls:
  3503 ;;		Nothing
  3504 ;; This function is called by:
  3505 ;;		_tache2
  3506 ;; This function uses a non-reentrant model
  3507 ;;
  3508                           
  3509                           	psect	text12
  3510   0025D0                     __ptext12:
  3511                           	callstack 0
  3512   0025D0                     _tp_delai:
  3513                           	callstack 27
  3514   0025D0                     
  3515                           ;T2.c: 82: void tp_delai(unsigned int itpd);T2.c: 83: {;T2.c: 84:     while(itpd>0)
  3516   0025D0  EFF0  F012         	goto	i2l4089
  3517   0025D4                     i2l577:
  3518                           
  3519                           ;T2.c: 85:     {;T2.c: 86:         __nop();__nop();__nop();
  3520   0025D4  0000               	nop	
  3521   0025D6  0000               	nop	
  3522   0025D8  0000               	nop	
  3523   0025DA                     
  3524                           ;T2.c: 87:         itpd--;
  3525   0025DA  0621               	decf	tp_delai@itpd^0,f,c
  3526   0025DC  A0D8               	btfss	status,0,c
  3527   0025DE  0622               	decf	(tp_delai@itpd+1)^0,f,c
  3528   0025E0                     i2l4089:
  3529                           
  3530                           ;T2.c: 84:     while(itpd>0)
  3531   0025E0  5021               	movf	tp_delai@itpd^0,w,c
  3532   0025E2  1022               	iorwf	(tp_delai@itpd+1)^0,w,c
  3533   0025E4  A4D8               	btfss	status,2,c
  3534   0025E6  EFF7  F012         	goto	i2u182_41
  3535   0025EA  EFF9  F012         	goto	i2u182_40
  3536   0025EE                     i2u182_41:
  3537   0025EE  EFEA  F012         	goto	i2l577
  3538   0025F2                     i2u182_40:
  3539   0025F2  0012               	return		;funcret
  3540   0025F4                     __end_of_tp_delai:
  3541                           	callstack 0
  3542                           
  3543 ;; *************** function ___lwdiv *****************
  3544 ;; Defined at:
  3545 ;;		line 7 in file "C:\Program Files\Microchip\xc8\v2.45\pic\sources\c99\common\lwdiv.c"
  3546 ;; Parameters:    Size  Location     Type
  3547 ;;  dividend        2    0[COMRAM] unsigned int 
  3548 ;;  divisor         2    2[COMRAM] unsigned int 
  3549 ;; Auto vars:     Size  Location     Type
  3550 ;;  quotient        2    4[COMRAM] unsigned int 
  3551 ;;  counter         1    6[COMRAM] unsigned char 
  3552 ;; Return value:  Size  Location     Type
  3553 ;;                  2    0[COMRAM] unsigned int 
  3554 ;; Registers used:
  3555 ;;		wreg, status,2, status,0
  3556 ;; Tracked objects:
  3557 ;;		On entry : 0/0
  3558 ;;		On exit  : 0/0
  3559 ;;		Unchanged: 0/0
  3560 ;; Data sizes:     COMRAM   BANK0   BANK1   BANK2   BANK3   BANK4   BANK5   BANK6   BANK7   BANK8   BANK9  BANK10  BANK1
      +1  BANK12  BANK13  BANK14  BANK15
  3561 ;;      Params:         4       0       0       0       0       0       0       0       0       0       0       0       
      +0       0       0       0       0
  3562 ;;      Locals:         3       0       0       0       0       0       0       0       0       0       0       0       
      +0       0       0       0       0
  3563 ;;      Temps:          0       0       0       0       0       0       0       0       0       0       0       0       
      +0       0       0       0       0
  3564 ;;      Totals:         7       0       0       0       0       0       0       0       0       0       0       0       
      +0       0       0       0       0
  3565 ;;Total ram usage:        7 bytes
  3566 ;; Hardware stack levels used: 1
  3567 ;; This function calls:
  3568 ;;		Nothing
  3569 ;; This function is called by:
  3570 ;;		_tache2
  3571 ;; This function uses a non-reentrant model
  3572 ;;
  3573                           
  3574                           	psect	text13
  3575   002168                     __ptext13:
  3576                           	callstack 0
  3577   002168                     ___lwdiv:
  3578                           	callstack 27
  3579   002168  0E00               	movlw	0
  3580   00216A  6E26               	movwf	(___lwdiv@quotient+1)^0,c
  3581   00216C  0E00               	movlw	0
  3582   00216E  6E25               	movwf	___lwdiv@quotient^0,c
  3583   002170  5023               	movf	___lwdiv@divisor^0,w,c
  3584   002172  1024               	iorwf	(___lwdiv@divisor+1)^0,w,c
  3585   002174  B4D8               	btfsc	status,2,c
  3586   002176  EFBF  F010         	goto	i2u189_41
  3587   00217A  EFC1  F010         	goto	i2u189_40
  3588   00217E                     i2u189_41:
  3589   00217E  EFE9  F010         	goto	i2l2135
  3590   002182                     i2u189_40:
  3591   002182  0E01               	movlw	1
  3592   002184  6E27               	movwf	___lwdiv@counter^0,c
  3593   002186  EFC9  F010         	goto	i2l4155
  3594   00218A                     i2l4153:
  3595   00218A  90D8               	bcf	status,0,c
  3596   00218C  3623               	rlcf	___lwdiv@divisor^0,f,c
  3597   00218E  3624               	rlcf	(___lwdiv@divisor+1)^0,f,c
  3598   002190  2A27               	incf	___lwdiv@counter^0,f,c
  3599   002192                     i2l4155:
  3600   002192  AE24               	btfss	(___lwdiv@divisor+1)^0,7,c
  3601   002194  EFCE  F010         	goto	i2u190_41
  3602   002198  EFD0  F010         	goto	i2u190_40
  3603   00219C                     i2u190_41:
  3604   00219C  EFC5  F010         	goto	i2l4153
  3605   0021A0                     i2u190_40:
  3606   0021A0                     i2l4157:
  3607   0021A0  90D8               	bcf	status,0,c
  3608   0021A2  3625               	rlcf	___lwdiv@quotient^0,f,c
  3609   0021A4  3626               	rlcf	(___lwdiv@quotient+1)^0,f,c
  3610   0021A6  5023               	movf	___lwdiv@divisor^0,w,c
  3611   0021A8  5C21               	subwf	___lwdiv@dividend^0,w,c
  3612   0021AA  5024               	movf	(___lwdiv@divisor+1)^0,w,c
  3613   0021AC  5822               	subwfb	(___lwdiv@dividend+1)^0,w,c
  3614   0021AE  A0D8               	btfss	status,0,c
  3615   0021B0  EFDC  F010         	goto	i2u191_41
  3616   0021B4  EFDE  F010         	goto	i2u191_40
  3617   0021B8                     i2u191_41:
  3618   0021B8  EFE3  F010         	goto	i2l4165
  3619   0021BC                     i2u191_40:
  3620   0021BC  5023               	movf	___lwdiv@divisor^0,w,c
  3621   0021BE  5E21               	subwf	___lwdiv@dividend^0,f,c
  3622   0021C0  5024               	movf	(___lwdiv@divisor+1)^0,w,c
  3623   0021C2  5A22               	subwfb	(___lwdiv@dividend+1)^0,f,c
  3624   0021C4  8025               	bsf	___lwdiv@quotient^0,0,c
  3625   0021C6                     i2l4165:
  3626   0021C6  90D8               	bcf	status,0,c
  3627   0021C8  3224               	rrcf	(___lwdiv@divisor+1)^0,f,c
  3628   0021CA  3223               	rrcf	___lwdiv@divisor^0,f,c
  3629   0021CC  2E27               	decfsz	___lwdiv@counter^0,f,c
  3630   0021CE  EFD0  F010         	goto	i2l4157
  3631   0021D2                     i2l2135:
  3632   0021D2  C025  F021         	movff	___lwdiv@quotient,?___lwdiv
  3633   0021D6  C026  F022         	movff	___lwdiv@quotient+1,?___lwdiv+1
  3634   0021DA  0012               	return		;funcret
  3635   0021DC                     __end_of___lwdiv:
  3636                           	callstack 0
  3637                           
  3638 ;; *************** function _tache1 *****************
  3639 ;; Defined at:
  3640 ;;		line 3 in file "T1.c"
  3641 ;; Parameters:    Size  Location     Type
  3642 ;;		None
  3643 ;; Auto vars:     Size  Location     Type
  3644 ;;  i               1   14[COMRAM] unsigned char 
  3645 ;; Return value:  Size  Location     Type
  3646 ;;                  1    wreg      void 
  3647 ;; Registers used:
  3648 ;;		wreg, fsr2l, fsr2h, status,2, status,0, tblptrl, tblptrh, tblptru, prodl, prodh, cstack
  3649 ;; Tracked objects:
  3650 ;;		On entry : 0/0
  3651 ;;		On exit  : 0/0
  3652 ;;		Unchanged: 0/0
  3653 ;; Data sizes:     COMRAM   BANK0   BANK1   BANK2   BANK3   BANK4   BANK5   BANK6   BANK7   BANK8   BANK9  BANK10  BANK1
      +1  BANK12  BANK13  BANK14  BANK15
  3654 ;;      Params:         0       0       0       0       0       0       0       0       0       0       0       0       
      +0       0       0       0       0
  3655 ;;      Locals:         1       0       0       0       0       0       0       0       0       0       0       0       
      +0       0       0       0       0
  3656 ;;      Temps:          0       0       0       0       0       0       0       0       0       0       0       0       
      +0       0       0       0       0
  3657 ;;      Totals:         1       0       0       0       0       0       0       0       0       0       0       0       
      +0       0       0       0       0
  3658 ;;Total ram usage:        1 bytes
  3659 ;; Hardware stack levels used: 1
  3660 ;; Hardware stack levels required when called: 4
  3661 ;; This function calls:
  3662 ;;		_clear_graphics
  3663 ;;		_clear_text
  3664 ;;		_draw_char
  3665 ;;		_draw_hex8
  3666 ;;		_draw_string
  3667 ;;		_goto_lico
  3668 ;;		_init_rxtx
  3669 ;;		_initialisation_afficheur
  3670 ;;		_lecture_8bit_analogique
  3671 ;;		_plot1
  3672 ;;		i2_Init
  3673 ;; This function is called by:
  3674 ;;		_fonction_d_interruption
  3675 ;;		_initialisation_du_systeme
  3676 ;; This function uses a non-reentrant model
  3677 ;;
  3678                           
  3679                           	psect	text14
  3680   00108C                     __ptext14:
  3681                           	callstack 0
  3682   00108C                     _tache1:
  3683                           	callstack 24
  3684   00108C                     
  3685                           ;T1.c: 5:     unsigned char i;;T1.c: 7:     (INTCONbits.GIE = 0);
  3686   00108C  9EF2               	bcf	242,7,c	;volatile
  3687   00108E                     
  3688                           ;T1.c: 8:     initialisation_afficheur();
  3689   00108E  ECEF  F00D         	call	_initialisation_afficheur	;wreg free
  3690                           
  3691                           ;T1.c: 9:     clear_text();
  3692   001092  EC57  F012         	call	_clear_text	;wreg free
  3693                           
  3694                           ;T1.c: 10:     clear_graphics();
  3695   001096  EC74  F012         	call	_clear_graphics	;wreg free
  3696   00109A                     
  3697                           ;T1.c: 11:     init_rxtx();
  3698   00109A  EC0C  F013         	call	_init_rxtx	;wreg free
  3699   00109E                     
  3700                           ;T1.c: 12:     Init(2);
  3701   00109E  0E02               	movlw	2
  3702   0010A0  EC19  F012         	call	i2_Init
  3703   0010A4                     
  3704                           ;T1.c: 13:     RXTX_libre=1;
  3705   0010A4  0E01               	movlw	1
  3706   0010A6  0100               	movlb	0	; () banked
  3707   0010A8  6F80               	movwf	128,b
  3708   0010AA                     
  3709                           ; BSR set to: 0
  3710                           ;T1.c: 14:     TXREG1='R';
  3711   0010AA  0E52               	movlw	82
  3712   0010AC  6EAD               	movwf	173,c	;volatile
  3713   0010AE                     
  3714                           ; BSR set to: 0
  3715                           ;T1.c: 15:     (INTCONbits.GIE = 1);
  3716   0010AE  8EF2               	bsf	242,7,c	;volatile
  3717   0010B0                     
  3718                           ; BSR set to: 0
  3719                           ;T1.c: 17:     LATCbits.LATC2=0;LATCbits.LATC1=0;LATGbits.LATG0=0;
  3720   0010B0  948B               	bcf	139,2,c	;volatile
  3721   0010B2                     
  3722                           ; BSR set to: 0
  3723   0010B2  928B               	bcf	139,1,c	;volatile
  3724   0010B4                     
  3725                           ; BSR set to: 0
  3726   0010B4  908F               	bcf	143,0,c	;volatile
  3727   0010B6                     
  3728                           ; BSR set to: 0
  3729                           ;T1.c: 19:     vitesse=0;
  3730   0010B6  0E00               	movlw	0
  3731   0010B8  6F73               	movwf	115,b
  3732   0010BA                     
  3733                           ; BSR set to: 0
  3734                           ;T1.c: 20:     batterie=120;
  3735   0010BA  0E78               	movlw	120
  3736   0010BC  6F74               	movwf	116,b
  3737   0010BE                     
  3738                           ; BSR set to: 0
  3739                           ;T1.c: 21:     n_octet_badge=0;
  3740   0010BE  0E00               	movlw	0
  3741   0010C0  6F7F               	movwf	127,b
  3742   0010C2                     
  3743                           ; BSR set to: 0
  3744                           ;T1.c: 23:     goto_lico(13,34);draw_char('R');draw_char(' ');draw_char('V');draw_char('
      +                           ');draw_char('B');
  3745   0010C2  0E22               	movlw	34
  3746   0010C4  6E29               	movwf	goto_lico@colonne^0,c
  3747   0010C6  0E0D               	movlw	13
  3748   0010C8  EC3C  F010         	call	_goto_lico
  3749   0010CC  0E52               	movlw	82
  3750   0010CE  EC5F  F011         	call	_draw_char
  3751   0010D2  0E20               	movlw	32
  3752   0010D4  EC5F  F011         	call	_draw_char
  3753   0010D8  0E56               	movlw	86
  3754   0010DA  EC5F  F011         	call	_draw_char
  3755   0010DE  0E20               	movlw	32
  3756   0010E0  EC5F  F011         	call	_draw_char
  3757   0010E4  0E42               	movlw	66
  3758   0010E6  EC5F  F011         	call	_draw_char
  3759   0010EA                     
  3760                           ;T1.c: 24:     goto_lico(14,34);draw_char('0');draw_char(' ');draw_char('0');draw_char('
      +                           ');draw_char('0');
  3761   0010EA  0E22               	movlw	34
  3762   0010EC  6E29               	movwf	goto_lico@colonne^0,c
  3763   0010EE  0E0E               	movlw	14
  3764   0010F0  EC3C  F010         	call	_goto_lico
  3765   0010F4  0E30               	movlw	48
  3766   0010F6  EC5F  F011         	call	_draw_char
  3767   0010FA  0E20               	movlw	32
  3768   0010FC  EC5F  F011         	call	_draw_char
  3769   001100  0E30               	movlw	48
  3770   001102  EC5F  F011         	call	_draw_char
  3771   001106  0E20               	movlw	32
  3772   001108  EC5F  F011         	call	_draw_char
  3773   00110C  0E30               	movlw	48
  3774   00110E  EC5F  F011         	call	_draw_char
  3775   001112                     
  3776                           ;T1.c: 25:     goto_lico(15,34);draw_char('1');draw_char(' ');draw_char('1');draw_char('
      +                           ');draw_char('1');
  3777   001112  0E22               	movlw	34
  3778   001114  6E29               	movwf	goto_lico@colonne^0,c
  3779   001116  0E0F               	movlw	15
  3780   001118  EC3C  F010         	call	_goto_lico
  3781   00111C  0E31               	movlw	49
  3782   00111E  EC5F  F011         	call	_draw_char
  3783   001122  0E20               	movlw	32
  3784   001124  EC5F  F011         	call	_draw_char
  3785   001128  0E31               	movlw	49
  3786   00112A  EC5F  F011         	call	_draw_char
  3787   00112E  0E20               	movlw	32
  3788   001130  EC5F  F011         	call	_draw_char
  3789   001134  0E31               	movlw	49
  3790   001136  EC5F  F011         	call	_draw_char
  3791   00113A                     
  3792                           ;T1.c: 27:     TP_appui=0;
  3793   00113A  0E00               	movlw	0
  3794   00113C  0100               	movlb	0	; () banked
  3795   00113E  6F66               	movwf	102,b
  3796   001140                     i2l4367:
  3797                           
  3798                           ;T1.c: 30:     {;T1.c: 32:         goto_lico(0,0);
  3799   001140  0E00               	movlw	0
  3800   001142  6E29               	movwf	goto_lico@colonne^0,c
  3801   001144  0E00               	movlw	0
  3802   001146  EC3C  F010         	call	_goto_lico
  3803   00114A                     
  3804                           ;T1.c: 33:         draw_string("Marche:");
  3805   00114A  0E59               	movlw	low STR_1
  3806   00114C  6E28               	movwf	draw_string@tableau^0,c
  3807   00114E  ECEE  F010         	call	_draw_string	;wreg free
  3808   001152                     
  3809                           ;T1.c: 34:         if (PORTBbits.RB0==0)
  3810   001152  B081               	btfsc	129,0,c	;volatile
  3811   001154  EFAE  F008         	goto	i2u192_41
  3812   001158  EFB0  F008         	goto	i2u192_40
  3813   00115C                     i2u192_41:
  3814   00115C  EFB6  F008         	goto	i2l434
  3815   001160                     i2u192_40:
  3816   001160                     
  3817                           ;T1.c: 35:             draw_string("AV");
  3818   001160  0E88               	movlw	low STR_2
  3819   001162  6E28               	movwf	draw_string@tableau^0,c
  3820   001164  ECEE  F010         	call	_draw_string	;wreg free
  3821   001168  EFC7  F008         	goto	i2l4379
  3822   00116C                     i2l434:
  3823                           
  3824                           ;T1.c: 37:             if (PORTBbits.RB1==0)
  3825   00116C  B281               	btfsc	129,1,c	;volatile
  3826   00116E  EFBB  F008         	goto	i2u193_41
  3827   001172  EFBD  F008         	goto	i2u193_40
  3828   001176                     i2u193_41:
  3829   001176  EFC3  F008         	goto	i2l4377
  3830   00117A                     i2u193_40:
  3831   00117A                     
  3832                           ;T1.c: 38:                 draw_string("AR");
  3833   00117A  0E85               	movlw	low STR_3
  3834   00117C  6E28               	movwf	draw_string@tableau^0,c
  3835   00117E  ECEE  F010         	call	_draw_string	;wreg free
  3836   001182  EFC7  F008         	goto	i2l4379
  3837   001186                     i2l4377:
  3838                           
  3839                           ;T1.c: 40:                 draw_string("N ");
  3840   001186  0E7F               	movlw	low STR_4
  3841   001188  6E28               	movwf	draw_string@tableau^0,c
  3842   00118A  ECEE  F010         	call	_draw_string	;wreg free
  3843   00118E                     i2l4379:
  3844                           
  3845                           ;T1.c: 42:         goto_lico(1,0);
  3846   00118E  0E00               	movlw	0
  3847   001190  6E29               	movwf	goto_lico@colonne^0,c
  3848   001192  0E01               	movlw	1
  3849   001194  EC3C  F010         	call	_goto_lico
  3850   001198                     
  3851                           ;T1.c: 43:         draw_string("Siege:");
  3852   001198  0E68               	movlw	low STR_5
  3853   00119A  6E28               	movwf	draw_string@tableau^0,c
  3854   00119C  ECEE  F010         	call	_draw_string	;wreg free
  3855   0011A0                     
  3856                           ;T1.c: 44:         if (PORTBbits.RB2==0)
  3857   0011A0  B481               	btfsc	129,2,c	;volatile
  3858   0011A2  EFD5  F008         	goto	i2u194_41
  3859   0011A6  EFD7  F008         	goto	i2u194_40
  3860   0011AA                     i2u194_41:
  3861   0011AA  EFDC  F008         	goto	i2l4387
  3862   0011AE                     i2u194_40:
  3863   0011AE                     
  3864                           ;T1.c: 45:         {draw_char('1');}
  3865   0011AE  0E31               	movlw	49
  3866   0011B0  EC5F  F011         	call	_draw_char
  3867   0011B4  EFDF  F008         	goto	i2l4389
  3868   0011B8                     i2l4387:
  3869                           
  3870                           ;T1.c: 47:         {draw_char('0');}
  3871   0011B8  0E30               	movlw	48
  3872   0011BA  EC5F  F011         	call	_draw_char
  3873   0011BE                     i2l4389:
  3874                           
  3875                           ;T1.c: 49:         goto_lico(2,0);
  3876   0011BE  0E00               	movlw	0
  3877   0011C0  6E29               	movwf	goto_lico@colonne^0,c
  3878   0011C2  0E02               	movlw	2
  3879   0011C4  EC3C  F010         	call	_goto_lico
  3880   0011C8                     
  3881                           ;T1.c: 50:         draw_string("Temp. Eau:");
  3882   0011C8  0E3B               	movlw	low STR_6
  3883   0011CA  6E28               	movwf	draw_string@tableau^0,c
  3884   0011CC  ECEE  F010         	call	_draw_string	;wreg free
  3885   0011D0                     
  3886                           ;T1.c: 51:         draw_hex8(lecture_8bit_analogique(2));
  3887   0011D0  0E02               	movlw	2
  3888   0011D2  ECAF  F011         	call	_lecture_8bit_analogique
  3889   0011D6  ECF4  F00F         	call	_draw_hex8
  3890   0011DA                     
  3891                           ;T1.c: 53:         goto_lico(3,0);
  3892   0011DA  0E00               	movlw	0
  3893   0011DC  6E29               	movwf	goto_lico@colonne^0,c
  3894   0011DE  0E03               	movlw	3
  3895   0011E0  EC3C  F010         	call	_goto_lico
  3896                           
  3897                           ;T1.c: 54:         draw_string("Temp. Huile:");
  3898   0011E4  0E16               	movlw	low STR_7
  3899   0011E6  6E28               	movwf	draw_string@tableau^0,c
  3900   0011E8  ECEE  F010         	call	_draw_string	;wreg free
  3901   0011EC                     
  3902                           ;T1.c: 55:         draw_hex8(lecture_8bit_analogique(3));
  3903   0011EC  0E03               	movlw	3
  3904   0011EE  ECAF  F011         	call	_lecture_8bit_analogique
  3905   0011F2  ECF4  F00F         	call	_draw_hex8
  3906   0011F6                     
  3907                           ;T1.c: 57:         goto_lico(4,0);
  3908   0011F6  0E00               	movlw	0
  3909   0011F8  6E29               	movwf	goto_lico@colonne^0,c
  3910   0011FA  0E04               	movlw	4
  3911   0011FC  EC3C  F010         	call	_goto_lico
  3912   001200                     
  3913                           ;T1.c: 58:         draw_string("Choc:");
  3914   001200  0E75               	movlw	low STR_8
  3915   001202  6E28               	movwf	draw_string@tableau^0,c
  3916   001204  ECEE  F010         	call	_draw_string	;wreg free
  3917   001208                     
  3918                           ;T1.c: 59:         if (PORTBbits.RB3==0)
  3919   001208  B681               	btfsc	129,3,c	;volatile
  3920   00120A  EF09  F009         	goto	i2u195_41
  3921   00120E  EF0B  F009         	goto	i2u195_40
  3922   001212                     i2u195_41:
  3923   001212  EF10  F009         	goto	i2l4407
  3924   001216                     i2u195_40:
  3925   001216                     
  3926                           ;T1.c: 60:             draw_char('1');
  3927   001216  0E31               	movlw	49
  3928   001218  EC5F  F011         	call	_draw_char
  3929   00121C  EF13  F009         	goto	i2l4409
  3930   001220                     i2l4407:
  3931                           
  3932                           ;T1.c: 62:             draw_char('0');
  3933   001220  0E30               	movlw	48
  3934   001222  EC5F  F011         	call	_draw_char
  3935   001226                     i2l4409:
  3936                           
  3937                           ;T1.c: 64:         goto_lico(5,0);
  3938   001226  0E00               	movlw	0
  3939   001228  6E29               	movwf	goto_lico@colonne^0,c
  3940   00122A  0E05               	movlw	5
  3941   00122C  EC3C  F010         	call	_goto_lico
  3942   001230                     
  3943                           ;T1.c: 65:         draw_string("Vitesse:");
  3944   001230  0E50               	movlw	low STR_9
  3945   001232  6E28               	movwf	draw_string@tableau^0,c
  3946   001234  ECEE  F010         	call	_draw_string	;wreg free
  3947   001238                     
  3948                           ;T1.c: 66:         if (PORTEbits.RE0==0)
  3949   001238  B084               	btfsc	132,0,c	;volatile
  3950   00123A  EF21  F009         	goto	i2u196_41
  3951   00123E  EF23  F009         	goto	i2u196_40
  3952   001242                     i2u196_41:
  3953   001242  EF25  F009         	goto	i2l4417
  3954   001246                     i2u196_40:
  3955   001246                     
  3956                           ;T1.c: 67:             vitesse++;
  3957   001246  0100               	movlb	0	; () banked
  3958   001248  2B73               	incf	115,f,b
  3959   00124A                     i2l4417:
  3960                           
  3961                           ;T1.c: 68:         if (PORTEbits.RE1==0)
  3962   00124A  B284               	btfsc	132,1,c	;volatile
  3963   00124C  EF2A  F009         	goto	i2u197_41
  3964   001250  EF2C  F009         	goto	i2u197_40
  3965   001254                     i2u197_41:
  3966   001254  EF2E  F009         	goto	i2l4421
  3967   001258                     i2u197_40:
  3968   001258                     
  3969                           ;T1.c: 69:             vitesse--;
  3970   001258  0100               	movlb	0	; () banked
  3971   00125A  0773               	decf	115,f,b
  3972   00125C                     i2l4421:
  3973                           
  3974                           ;T1.c: 70:         draw_hex8(vitesse);
  3975   00125C  0100               	movlb	0	; () banked
  3976   00125E  5173               	movf	115,w,b
  3977   001260  ECF4  F00F         	call	_draw_hex8
  3978   001264                     
  3979                           ;T1.c: 72:         goto_lico(6,0);
  3980   001264  0E00               	movlw	0
  3981   001266  6E29               	movwf	goto_lico@colonne^0,c
  3982   001268  0E06               	movlw	6
  3983   00126A  EC3C  F010         	call	_goto_lico
  3984   00126E                     
  3985                           ;T1.c: 73:         draw_string("Batterie:");
  3986   00126E  0E46               	movlw	low STR_10
  3987   001270  6E28               	movwf	draw_string@tableau^0,c
  3988   001272  ECEE  F010         	call	_draw_string	;wreg free
  3989   001276                     
  3990                           ;T1.c: 74:         if (PORTEbits.RE2==0)
  3991   001276  B484               	btfsc	132,2,c	;volatile
  3992   001278  EF40  F009         	goto	i2u198_41
  3993   00127C  EF42  F009         	goto	i2u198_40
  3994   001280                     i2u198_41:
  3995   001280  EF44  F009         	goto	i2l4431
  3996   001284                     i2u198_40:
  3997   001284                     
  3998                           ;T1.c: 75:             batterie++;
  3999   001284  0100               	movlb	0	; () banked
  4000   001286  2B74               	incf	116,f,b
  4001   001288                     i2l4431:
  4002                           
  4003                           ;T1.c: 76:         if (PORTEbits.RE3==0)
  4004   001288  B684               	btfsc	132,3,c	;volatile
  4005   00128A  EF49  F009         	goto	i2u199_41
  4006   00128E  EF4B  F009         	goto	i2u199_40
  4007   001292                     i2u199_41:
  4008   001292  EF4D  F009         	goto	i2l4435
  4009   001296                     i2u199_40:
  4010   001296                     
  4011                           ;T1.c: 77:             batterie--;
  4012   001296  0100               	movlb	0	; () banked
  4013   001298  0774               	decf	116,f,b
  4014   00129A                     i2l4435:
  4015                           
  4016                           ;T1.c: 78:         draw_hex8(batterie);
  4017   00129A  0100               	movlb	0	; () banked
  4018   00129C  5174               	movf	116,w,b
  4019   00129E  ECF4  F00F         	call	_draw_hex8
  4020   0012A2                     
  4021                           ;T1.c: 80:         goto_lico(7,0);
  4022   0012A2  0E00               	movlw	0
  4023   0012A4  6E29               	movwf	goto_lico@colonne^0,c
  4024   0012A6  0E07               	movlw	7
  4025   0012A8  EC3C  F010         	call	_goto_lico
  4026   0012AC                     
  4027                           ;T1.c: 81:         if (PORTEbits.RE4==0)
  4028   0012AC  B884               	btfsc	132,4,c	;volatile
  4029   0012AE  EF5B  F009         	goto	i2u200_41
  4030   0012B2  EF5D  F009         	goto	i2u200_40
  4031   0012B6                     i2u200_41:
  4032   0012B6  EF63  F009         	goto	i2l4443
  4033   0012BA                     i2u200_40:
  4034   0012BA                     
  4035                           ;T1.c: 82:             draw_string("((!))");
  4036   0012BA  0E6F               	movlw	low STR_11
  4037   0012BC  6E28               	movwf	draw_string@tableau^0,c
  4038   0012BE  ECEE  F010         	call	_draw_string	;wreg free
  4039   0012C2  EF67  F009         	goto	i2l4445
  4040   0012C6                     i2l4443:
  4041                           
  4042                           ;T1.c: 84:             draw_string("     ");
  4043   0012C6  0E10               	movlw	low (STR_14+15)
  4044   0012C8  6E28               	movwf	draw_string@tableau^0,c
  4045   0012CA  ECEE  F010         	call	_draw_string	;wreg free
  4046   0012CE                     i2l4445:
  4047                           
  4048                           ;T1.c: 86:         goto_lico(8,0);
  4049   0012CE  0E00               	movlw	0
  4050   0012D0  6E29               	movwf	goto_lico@colonne^0,c
  4051   0012D2  0E08               	movlw	8
  4052   0012D4  EC3C  F010         	call	_goto_lico
  4053   0012D8                     
  4054                           ;T1.c: 87:         draw_string("Badge:");
  4055   0012D8  0E61               	movlw	low STR_13
  4056   0012DA  6E28               	movwf	draw_string@tableau^0,c
  4057   0012DC  ECEE  F010         	call	_draw_string	;wreg free
  4058   0012E0                     
  4059                           ;T1.c: 88:         if (n_octet_badge==0)
  4060   0012E0  0100               	movlb	0	; () banked
  4061   0012E2  517F               	movf	127,w,b
  4062   0012E4  A4D8               	btfss	status,2,c
  4063   0012E6  EF77  F009         	goto	i2u201_41
  4064   0012EA  EF79  F009         	goto	i2u201_40
  4065   0012EE                     i2u201_41:
  4066   0012EE  EF7F  F009         	goto	i2l4453
  4067   0012F2                     i2u201_40:
  4068   0012F2                     
  4069                           ; BSR set to: 0
  4070                           ;T1.c: 89:             draw_string(" AUCUN              ");
  4071   0012F2  0E01               	movlw	low STR_14
  4072   0012F4  6E28               	movwf	draw_string@tableau^0,c
  4073   0012F6  ECEE  F010         	call	_draw_string	;wreg free
  4074   0012FA  EF97  F009         	goto	i2l4461
  4075   0012FE                     i2l4453:
  4076                           
  4077                           ; BSR set to: 0
  4078                           ;T1.c: 91:         {;T1.c: 92:             for (i=0;i<n_octet_badge;i++)
  4079   0012FE  0E00               	movlw	0
  4080   001300  6E2F               	movwf	tache1@i^0,c
  4081   001302  EF8D  F009         	goto	i2l4459
  4082   001306                     i2l4455:
  4083                           
  4084                           ; BSR set to: 0
  4085                           ;T1.c: 93:             {;T1.c: 94:                 draw_hex8(badge[i]);
  4086   001306  0E75               	movlw	117
  4087   001308  242F               	addwf	tache1@i^0,w,c
  4088   00130A  6ED9               	movwf	fsr2l,c
  4089   00130C  6ADA               	clrf	fsr2h,c
  4090   00130E  0E00               	movlw	0
  4091   001310  22DA               	addwfc	fsr2h,f,c
  4092   001312  50DF               	movf	indf2,w,c
  4093   001314  ECF4  F00F         	call	_draw_hex8
  4094   001318                     
  4095                           ;T1.c: 95:             }
  4096   001318  2A2F               	incf	tache1@i^0,f,c
  4097   00131A                     i2l4459:
  4098   00131A  0100               	movlb	0	; () banked
  4099   00131C  517F               	movf	127,w,b
  4100   00131E  5C2F               	subwf	tache1@i^0,w,c
  4101   001320  A0D8               	btfss	status,0,c
  4102   001322  EF95  F009         	goto	i2u202_41
  4103   001326  EF97  F009         	goto	i2u202_40
  4104   00132A                     i2u202_41:
  4105   00132A  EF83  F009         	goto	i2l4455
  4106   00132E                     i2u202_40:
  4107   00132E                     i2l4461:
  4108                           
  4109                           ;T1.c: 98:         goto_lico(9,0);
  4110   00132E  0E00               	movlw	0
  4111   001330  6E29               	movwf	goto_lico@colonne^0,c
  4112   001332  0E09               	movlw	9
  4113   001334  EC3C  F010         	call	_goto_lico
  4114   001338                     
  4115                           ;T1.c: 99:         draw_string("X-Joystick:");
  4116   001338  0E23               	movlw	low STR_15
  4117   00133A  6E28               	movwf	draw_string@tableau^0,c
  4118   00133C  ECEE  F010         	call	_draw_string	;wreg free
  4119   001340                     
  4120                           ;T1.c: 100:         draw_hex8(lecture_8bit_analogique(10));
  4121   001340  0E0A               	movlw	10
  4122   001342  ECAF  F011         	call	_lecture_8bit_analogique
  4123   001346  ECF4  F00F         	call	_draw_hex8
  4124   00134A                     
  4125                           ;T1.c: 102:         goto_lico(10,0);
  4126   00134A  0E00               	movlw	0
  4127   00134C  6E29               	movwf	goto_lico@colonne^0,c
  4128   00134E  0E0A               	movlw	10
  4129   001350  EC3C  F010         	call	_goto_lico
  4130   001354                     
  4131                           ;T1.c: 103:         draw_string("Y-Joystick:");
  4132   001354  0E2F               	movlw	low STR_16
  4133   001356  6E28               	movwf	draw_string@tableau^0,c
  4134   001358  ECEE  F010         	call	_draw_string	;wreg free
  4135                           
  4136                           ;T1.c: 104:         draw_hex8(lecture_8bit_analogique(11));
  4137   00135C  0E0B               	movlw	11
  4138   00135E  ECAF  F011         	call	_lecture_8bit_analogique
  4139   001362  ECF4  F00F         	call	_draw_hex8
  4140   001366                     
  4141                           ;T1.c: 106:         if (TP_appui==1)
  4142   001366  0100               	movlb	0	; () banked
  4143   001368  0566               	decf	102,w,b
  4144   00136A  A4D8               	btfss	status,2,c
  4145   00136C  EFBA  F009         	goto	i2u203_41
  4146   001370  EFBC  F009         	goto	i2u203_40
  4147   001374                     i2u203_41:
  4148   001374  EFD9  F009         	goto	i2l453
  4149   001378                     i2u203_40:
  4150   001378                     
  4151                           ; BSR set to: 0
  4152                           ;T1.c: 107:         {;T1.c: 108:             goto_lico(0,20);
  4153   001378  0E14               	movlw	20
  4154   00137A  6E29               	movwf	goto_lico@colonne^0,c
  4155   00137C  0E00               	movlw	0
  4156   00137E  EC3C  F010         	call	_goto_lico
  4157   001382                     
  4158                           ;T1.c: 109:             draw_string("x=");
  4159   001382  0E82               	movlw	low STR_17
  4160   001384  6E28               	movwf	draw_string@tableau^0,c
  4161   001386  ECEE  F010         	call	_draw_string	;wreg free
  4162   00138A                     
  4163                           ;T1.c: 110:             draw_hex8(TP_x);
  4164   00138A  0100               	movlb	0	; () banked
  4165   00138C  5167               	movf	103,w,b
  4166   00138E  ECF4  F00F         	call	_draw_hex8
  4167   001392                     
  4168                           ;T1.c: 111:             draw_string(" y=");
  4169   001392  0E7B               	movlw	low STR_18
  4170   001394  6E28               	movwf	draw_string@tableau^0,c
  4171   001396  ECEE  F010         	call	_draw_string	;wreg free
  4172   00139A                     
  4173                           ;T1.c: 112:             draw_hex8(TP_y);
  4174   00139A  0100               	movlb	0	; () banked
  4175   00139C  5168               	movf	104,w,b
  4176   00139E  ECF4  F00F         	call	_draw_hex8
  4177                           
  4178                           ;T1.c: 113:             plot1(TP_x,TP_y);
  4179   0013A2  C068 F029          	movff	104,plot1@y
  4180   0013A6  0100               	movlb	0	; () banked
  4181   0013A8  5167               	movf	103,w,b
  4182   0013AA  ECD1  F00E         	call	_plot1
  4183                           
  4184                           ;T1.c: 114:         }
  4185   0013AE  EFA0  F008         	goto	i2l4367
  4186   0013B2                     i2l453:
  4187                           
  4188                           ; BSR set to: 0
  4189                           ;T1.c: 116:         {;T1.c: 117:             __nop();
  4190   0013B2  0000               	nop	
  4191   0013B4  EFA0  F008         	goto	i2l4367
  4192   0013B8  0012               	return		;funcret
  4193   0013BA                     __end_of_tache1:
  4194                           	callstack 0
  4195                           
  4196 ;; *************** function i2_Init *****************
  4197 ;; Defined at:
  4198 ;;		line 4 in file "semaphore.c"
  4199 ;; Parameters:    Size  Location     Type
  4200 ;;  sem             1    wreg     unsigned char 
  4201 ;; Auto vars:     Size  Location     Type
  4202 ;;  sem             1    2[COMRAM] unsigned char 
  4203 ;; Return value:  Size  Location     Type
  4204 ;;                  1    wreg      void 
  4205 ;; Registers used:
  4206 ;;		wreg, status,2, status,0
  4207 ;; Tracked objects:
  4208 ;;		On entry : 0/0
  4209 ;;		On exit  : 0/0
  4210 ;;		Unchanged: 0/0
  4211 ;; Data sizes:     COMRAM   BANK0   BANK1   BANK2   BANK3   BANK4   BANK5   BANK6   BANK7   BANK8   BANK9  BANK10  BANK1
      +1  BANK12  BANK13  BANK14  BANK15
  4212 ;;      Params:         0       0       0       0       0       0       0       0       0       0       0       0       
      +0       0       0       0       0
  4213 ;;      Locals:         1       0       0       0       0       0       0       0       0       0       0       0       
      +0       0       0       0       0
  4214 ;;      Temps:          2       0       0       0       0       0       0       0       0       0       0       0       
      +0       0       0       0       0
  4215 ;;      Totals:         3       0       0       0       0       0       0       0       0       0       0       0       
      +0       0       0       0       0
  4216 ;;Total ram usage:        3 bytes
  4217 ;; Hardware stack levels used: 1
  4218 ;; This function calls:
  4219 ;;		Nothing
  4220 ;; This function is called by:
  4221 ;;		_tache1
  4222 ;; This function uses a non-reentrant model
  4223 ;;
  4224                           
  4225                           	psect	text15
  4226   002432                     __ptext15:
  4227                           	callstack 0
  4228   002432                     i2_Init:
  4229                           	callstack 27
  4230                           
  4231                           ;incstack = 0
  4232                           ;i2Init@sem stored from wreg
  4233   002432  6E23               	movwf	i2Init@sem^0,c
  4234   002434                     
  4235                           ;semaphore.c: 4: void Init(unsigned char sem);semaphore.c: 5: {;semaphore.c: 6:     swit
      +                          ch (sem)
  4236   002434  EF24  F012         	goto	i2l4175
  4237   002438                     i2l4171:
  4238                           
  4239                           ;semaphore.c: 9:             Val_sem_cna=1;
  4240   002438  0E01               	movlw	1
  4241   00243A  6E47               	movwf	_Val_sem_cna^0,c
  4242                           
  4243                           ;semaphore.c: 10:             break;
  4244   00243C  EF39  F012         	goto	i2l1411
  4245   002440                     i2l4173:
  4246                           
  4247                           ;semaphore.c: 12:             Val_sem_rxtx=1;
  4248   002440  0E01               	movlw	1
  4249   002442  6E46               	movwf	_Val_sem_rxtx^0,c
  4250                           
  4251                           ;semaphore.c: 13:             break;
  4252   002444  EF39  F012         	goto	i2l1411
  4253   002448                     i2l4175:
  4254   002448  5023               	movf	i2Init@sem^0,w,c
  4255   00244A  6E21               	movwf	??i2_Init^0,c
  4256   00244C  6A22               	clrf	(??i2_Init+1)^0,c
  4257                           
  4258                           ; Switch on 2 bytes has been partitioned into a top level switch of size 1, and 1 sub-sw
      +                          itches
  4259                           ; Switch size 1, requested type "simple"
  4260                           ; Number of cases is 1, Range of values is 0 to 0
  4261                           ; switch strategies available:
  4262                           ; Name         Instructions Cycles
  4263                           ; simple_byte            4     3 (average)
  4264                           ;	Chosen strategy is simple_byte
  4265   00244E  5022               	movf	(??i2_Init+1)^0,w,c
  4266   002450  0A00               	xorlw	0	; case 0
  4267   002452  B4D8               	btfsc	status,2,c
  4268   002454  EF2E  F012         	goto	i2l5279
  4269   002458  EF39  F012         	goto	i2l1411
  4270   00245C                     i2l5279:
  4271                           
  4272                           ; Switch size 1, requested type "simple"
  4273                           ; Number of cases is 2, Range of values is 1 to 2
  4274                           ; switch strategies available:
  4275                           ; Name         Instructions Cycles
  4276                           ; simple_byte            7     4 (average)
  4277                           ;	Chosen strategy is simple_byte
  4278   00245C  5021               	movf	??i2_Init^0,w,c
  4279   00245E  0A01               	xorlw	1	; case 1
  4280   002460  B4D8               	btfsc	status,2,c
  4281   002462  EF1C  F012         	goto	i2l4171
  4282   002466  0A03               	xorlw	3	; case 2
  4283   002468  B4D8               	btfsc	status,2,c
  4284   00246A  EF20  F012         	goto	i2l4173
  4285   00246E  EF39  F012         	goto	i2l1411
  4286   002472                     i2l1411:
  4287   002472  0012               	return		;funcret
  4288   002474                     __end_ofi2_Init:
  4289                           	callstack 0
  4290                           
  4291 ;; *************** function _plot1 *****************
  4292 ;; Defined at:
  4293 ;;		line 340 in file "afficheur.c"
  4294 ;; Parameters:    Size  Location     Type
  4295 ;;  x               1    wreg     unsigned char 
  4296 ;;  y               1    8[COMRAM] unsigned char 
  4297 ;; Auto vars:     Size  Location     Type
  4298 ;;  x               1   13[COMRAM] unsigned char 
  4299 ;;  add             2   11[COMRAM] unsigned int 
  4300 ;; Return value:  Size  Location     Type
  4301 ;;                  1    wreg      void 
  4302 ;; Registers used:
  4303 ;;		wreg, status,2, status,0, prodl, prodh, cstack
  4304 ;; Tracked objects:
  4305 ;;		On entry : 0/0
  4306 ;;		On exit  : 0/0
  4307 ;;		Unchanged: 0/0
  4308 ;; Data sizes:     COMRAM   BANK0   BANK1   BANK2   BANK3   BANK4   BANK5   BANK6   BANK7   BANK8   BANK9  BANK10  BANK1
      +1  BANK12  BANK13  BANK14  BANK15
  4309 ;;      Params:         1       0       0       0       0       0       0       0       0       0       0       0       
      +0       0       0       0       0
  4310 ;;      Locals:         3       0       0       0       0       0       0       0       0       0       0       0       
      +0       0       0       0       0
  4311 ;;      Temps:          2       0       0       0       0       0       0       0       0       0       0       0       
      +0       0       0       0       0
  4312 ;;      Totals:         6       0       0       0       0       0       0       0       0       0       0       0       
      +0       0       0       0       0
  4313 ;;Total ram usage:        6 bytes
  4314 ;; Hardware stack levels used: 1
  4315 ;; Hardware stack levels required when called: 3
  4316 ;; This function calls:
  4317 ;;		___awdiv
  4318 ;;		___awmod
  4319 ;;		_command
  4320 ;;		_d2command
  4321 ;; This function is called by:
  4322 ;;		_tache1
  4323 ;; This function uses a non-reentrant model
  4324 ;;
  4325                           
  4326                           	psect	text16
  4327   001DA2                     __ptext16:
  4328                           	callstack 0
  4329   001DA2                     _plot1:
  4330                           	callstack 24
  4331                           
  4332                           ;incstack = 0
  4333                           ;plot1@x stored from wreg
  4334   001DA2  6E2E               	movwf	plot1@x^0,c
  4335   001DA4                     
  4336                           ;afficheur.c: 340: void plot1(unsigned char x, unsigned char y);afficheur.c: 341: {;affi
      +                          cheur.c: 342:     unsigned int add;;afficheur.c: 344:     add=40*y+x/6;
  4337   001DA4  C02E  F021         	movff	plot1@x,___awdiv@dividend
  4338   001DA8  6A22               	clrf	(___awdiv@dividend+1)^0,c
  4339   001DAA  0E00               	movlw	0
  4340   001DAC  6E24               	movwf	(___awdiv@divisor+1)^0,c
  4341   001DAE  0E06               	movlw	6
  4342   001DB0  6E23               	movwf	___awdiv@divisor^0,c
  4343   001DB2  EC3A  F00F         	call	___awdiv	;wreg free
  4344   001DB6  5029               	movf	plot1@y^0,w,c
  4345   001DB8  0D28               	mullw	40
  4346   001DBA  CFF3 F02A          	movff	prodl,??_plot1
  4347   001DBE  CFF4 F02B          	movff	prodh,??_plot1+1
  4348   001DC2  5021               	movf	?___awdiv^0,w,c
  4349   001DC4  242A               	addwf	??_plot1^0,w,c
  4350   001DC6  6E2C               	movwf	plot1@add^0,c
  4351   001DC8  5022               	movf	(?___awdiv+1)^0,w,c
  4352   001DCA  202B               	addwfc	(??_plot1+1)^0,w,c
  4353   001DCC  6E2D               	movwf	(plot1@add+1)^0,c
  4354   001DCE                     
  4355                           ;afficheur.c: 345:     d2command((char)(add&0xff),(char)(add>>8),0x24);
  4356   001DCE  502D               	movf	(plot1@add+1)^0,w,c
  4357   001DD0  6E25               	movwf	d2command@d2^0,c
  4358   001DD2  0E24               	movlw	36
  4359   001DD4  6E26               	movwf	d2command@cmd^0,c
  4360   001DD6  502C               	movf	plot1@add^0,w,c
  4361   001DD8  EC28  F011         	call	_d2command
  4362                           
  4363                           ;afficheur.c: 347:     switch(x%6)
  4364   001DDC  EF0E  F00F         	goto	i2l4079
  4365   001DE0                     i2l4065:
  4366   001DE0  0EFD               	movlw	253
  4367   001DE2  ECFA  F012         	call	_command
  4368   001DE6  EF39  F00F         	goto	i2l1309
  4369   001DEA                     i2l4067:
  4370   001DEA  0EFC               	movlw	252
  4371   001DEC  ECFA  F012         	call	_command
  4372   001DF0  EF39  F00F         	goto	i2l1309
  4373   001DF4                     i2l4069:
  4374   001DF4  0EFB               	movlw	251
  4375   001DF6  ECFA  F012         	call	_command
  4376   001DFA  EF39  F00F         	goto	i2l1309
  4377   001DFE                     i2l4071:
  4378   001DFE  0EFA               	movlw	250
  4379   001E00  ECFA  F012         	call	_command
  4380   001E04  EF39  F00F         	goto	i2l1309
  4381   001E08                     i2l4073:
  4382   001E08  0EF9               	movlw	249
  4383   001E0A  ECFA  F012         	call	_command
  4384   001E0E  EF39  F00F         	goto	i2l1309
  4385   001E12                     i2l4075:
  4386   001E12  0EF8               	movlw	248
  4387   001E14  ECFA  F012         	call	_command
  4388   001E18  EF39  F00F         	goto	i2l1309
  4389   001E1C                     i2l4079:
  4390   001E1C  C02E  F021         	movff	plot1@x,___awmod@dividend
  4391   001E20  6A22               	clrf	(___awmod@dividend+1)^0,c
  4392   001E22  0E00               	movlw	0
  4393   001E24  6E24               	movwf	(___awmod@divisor+1)^0,c
  4394   001E26  0E06               	movlw	6
  4395   001E28  6E23               	movwf	___awmod@divisor^0,c
  4396   001E2A  EC9C  F00F         	call	___awmod	;wreg free
  4397                           
  4398                           ; Switch on 2 bytes has been partitioned into a top level switch of size 1, and 1 sub-sw
      +                          itches
  4399                           ; Switch size 1, requested type "simple"
  4400                           ; Number of cases is 1, Range of values is 0 to 0
  4401                           ; switch strategies available:
  4402                           ; Name         Instructions Cycles
  4403                           ; simple_byte            4     3 (average)
  4404                           ;	Chosen strategy is simple_byte
  4405   001E2E  5022               	movf	(?___awmod+1)^0,w,c
  4406   001E30  0A00               	xorlw	0	; case 0
  4407   001E32  B4D8               	btfsc	status,2,c
  4408   001E34  EF1E  F00F         	goto	i2l5281
  4409   001E38  EF39  F00F         	goto	i2l1309
  4410   001E3C                     i2l5281:
  4411                           
  4412                           ; Switch size 1, requested type "simple"
  4413                           ; Number of cases is 6, Range of values is 0 to 5
  4414                           ; switch strategies available:
  4415                           ; Name         Instructions Cycles
  4416                           ; simple_byte           19    10 (average)
  4417                           ;	Chosen strategy is simple_byte
  4418   001E3C  5021               	movf	?___awmod^0,w,c
  4419   001E3E  0A00               	xorlw	0	; case 0
  4420   001E40  B4D8               	btfsc	status,2,c
  4421   001E42  EFF0  F00E         	goto	i2l4065
  4422   001E46  0A01               	xorlw	1	; case 1
  4423   001E48  B4D8               	btfsc	status,2,c
  4424   001E4A  EFF5  F00E         	goto	i2l4067
  4425   001E4E  0A03               	xorlw	3	; case 2
  4426   001E50  B4D8               	btfsc	status,2,c
  4427   001E52  EFFA  F00E         	goto	i2l4069
  4428   001E56  0A01               	xorlw	1	; case 3
  4429   001E58  B4D8               	btfsc	status,2,c
  4430   001E5A  EFFF  F00E         	goto	i2l4071
  4431   001E5E  0A07               	xorlw	7	; case 4
  4432   001E60  B4D8               	btfsc	status,2,c
  4433   001E62  EF04  F00F         	goto	i2l4073
  4434   001E66  0A01               	xorlw	1	; case 5
  4435   001E68  B4D8               	btfsc	status,2,c
  4436   001E6A  EF09  F00F         	goto	i2l4075
  4437   001E6E  EF39  F00F         	goto	i2l1309
  4438   001E72                     i2l1309:
  4439   001E72  0012               	return		;funcret
  4440   001E74                     __end_of_plot1:
  4441                           	callstack 0
  4442                           
  4443 ;; *************** function ___awmod *****************
  4444 ;; Defined at:
  4445 ;;		line 7 in file "C:\Program Files\Microchip\xc8\v2.45\pic\sources\c99\common\awmod.c"
  4446 ;; Parameters:    Size  Location     Type
  4447 ;;  dividend        2    0[COMRAM] int 
  4448 ;;  divisor         2    2[COMRAM] int 
  4449 ;; Auto vars:     Size  Location     Type
  4450 ;;  sign            1    5[COMRAM] unsigned char 
  4451 ;;  counter         1    4[COMRAM] unsigned char 
  4452 ;; Return value:  Size  Location     Type
  4453 ;;                  2    0[COMRAM] int 
  4454 ;; Registers used:
  4455 ;;		wreg, status,2, status,0
  4456 ;; Tracked objects:
  4457 ;;		On entry : 0/0
  4458 ;;		On exit  : 0/0
  4459 ;;		Unchanged: 0/0
  4460 ;; Data sizes:     COMRAM   BANK0   BANK1   BANK2   BANK3   BANK4   BANK5   BANK6   BANK7   BANK8   BANK9  BANK10  BANK1
      +1  BANK12  BANK13  BANK14  BANK15
  4461 ;;      Params:         4       0       0       0       0       0       0       0       0       0       0       0       
      +0       0       0       0       0
  4462 ;;      Locals:         2       0       0       0       0       0       0       0       0       0       0       0       
      +0       0       0       0       0
  4463 ;;      Temps:          0       0       0       0       0       0       0       0       0       0       0       0       
      +0       0       0       0       0
  4464 ;;      Totals:         6       0       0       0       0       0       0       0       0       0       0       0       
      +0       0       0       0       0
  4465 ;;Total ram usage:        6 bytes
  4466 ;; Hardware stack levels used: 1
  4467 ;; This function calls:
  4468 ;;		Nothing
  4469 ;; This function is called by:
  4470 ;;		_plot1
  4471 ;;		_plot0
  4472 ;; This function uses a non-reentrant model
  4473 ;;
  4474                           
  4475                           	psect	text17
  4476   001F38                     __ptext17:
  4477                           	callstack 0
  4478   001F38                     ___awmod:
  4479                           	callstack 26
  4480   001F38  0E00               	movlw	0
  4481   001F3A  6E26               	movwf	___awmod@sign^0,c
  4482   001F3C  BE22               	btfsc	(___awmod@dividend+1)^0,7,c
  4483   001F3E  EFA5  F00F         	goto	i2u159_40
  4484   001F42  EFA3  F00F         	goto	i2u159_41
  4485   001F46                     i2u159_41:
  4486   001F46  EFAB  F00F         	goto	i2l3925
  4487   001F4A                     i2u159_40:
  4488   001F4A  6C21               	negf	___awmod@dividend^0,c
  4489   001F4C  1E22               	comf	(___awmod@dividend+1)^0,f,c
  4490   001F4E  B0D8               	btfsc	status,0,c
  4491   001F50  2A22               	incf	(___awmod@dividend+1)^0,f,c
  4492   001F52  0E01               	movlw	1
  4493   001F54  6E26               	movwf	___awmod@sign^0,c
  4494   001F56                     i2l3925:
  4495   001F56  BE24               	btfsc	(___awmod@divisor+1)^0,7,c
  4496   001F58  EFB2  F00F         	goto	i2u160_40
  4497   001F5C  EFB0  F00F         	goto	i2u160_41
  4498   001F60                     i2u160_41:
  4499   001F60  EFB6  F00F         	goto	i2l3929
  4500   001F64                     i2u160_40:
  4501   001F64  6C23               	negf	___awmod@divisor^0,c
  4502   001F66  1E24               	comf	(___awmod@divisor+1)^0,f,c
  4503   001F68  B0D8               	btfsc	status,0,c
  4504   001F6A  2A24               	incf	(___awmod@divisor+1)^0,f,c
  4505   001F6C                     i2l3929:
  4506   001F6C  5023               	movf	___awmod@divisor^0,w,c
  4507   001F6E  1024               	iorwf	(___awmod@divisor+1)^0,w,c
  4508   001F70  B4D8               	btfsc	status,2,c
  4509   001F72  EFBD  F00F         	goto	i2u161_41
  4510   001F76  EFBF  F00F         	goto	i2u161_40
  4511   001F7A                     i2u161_41:
  4512   001F7A  EFE3  F00F         	goto	i2l3945
  4513   001F7E                     i2u161_40:
  4514   001F7E  0E01               	movlw	1
  4515   001F80  6E25               	movwf	___awmod@counter^0,c
  4516   001F82  EFC7  F00F         	goto	i2l3935
  4517   001F86                     i2l3933:
  4518   001F86  90D8               	bcf	status,0,c
  4519   001F88  3623               	rlcf	___awmod@divisor^0,f,c
  4520   001F8A  3624               	rlcf	(___awmod@divisor+1)^0,f,c
  4521   001F8C  2A25               	incf	___awmod@counter^0,f,c
  4522   001F8E                     i2l3935:
  4523   001F8E  AE24               	btfss	(___awmod@divisor+1)^0,7,c
  4524   001F90  EFCC  F00F         	goto	i2u162_41
  4525   001F94  EFCE  F00F         	goto	i2u162_40
  4526   001F98                     i2u162_41:
  4527   001F98  EFC3  F00F         	goto	i2l3933
  4528   001F9C                     i2u162_40:
  4529   001F9C                     i2l3937:
  4530   001F9C  5023               	movf	___awmod@divisor^0,w,c
  4531   001F9E  5C21               	subwf	___awmod@dividend^0,w,c
  4532   001FA0  5024               	movf	(___awmod@divisor+1)^0,w,c
  4533   001FA2  5822               	subwfb	(___awmod@dividend+1)^0,w,c
  4534   001FA4  A0D8               	btfss	status,0,c
  4535   001FA6  EFD7  F00F         	goto	i2u163_41
  4536   001FAA  EFD9  F00F         	goto	i2u163_40
  4537   001FAE                     i2u163_41:
  4538   001FAE  EFDD  F00F         	goto	i2l3941
  4539   001FB2                     i2u163_40:
  4540   001FB2  5023               	movf	___awmod@divisor^0,w,c
  4541   001FB4  5E21               	subwf	___awmod@dividend^0,f,c
  4542   001FB6  5024               	movf	(___awmod@divisor+1)^0,w,c
  4543   001FB8  5A22               	subwfb	(___awmod@dividend+1)^0,f,c
  4544   001FBA                     i2l3941:
  4545   001FBA  90D8               	bcf	status,0,c
  4546   001FBC  3224               	rrcf	(___awmod@divisor+1)^0,f,c
  4547   001FBE  3223               	rrcf	___awmod@divisor^0,f,c
  4548   001FC0  2E25               	decfsz	___awmod@counter^0,f,c
  4549   001FC2  EFCE  F00F         	goto	i2l3937
  4550   001FC6                     i2l3945:
  4551   001FC6  5026               	movf	___awmod@sign^0,w,c
  4552   001FC8  B4D8               	btfsc	status,2,c
  4553   001FCA  EFE9  F00F         	goto	i2u164_41
  4554   001FCE  EFEB  F00F         	goto	i2u164_40
  4555   001FD2                     i2u164_41:
  4556   001FD2  EFEF  F00F         	goto	i2l3949
  4557   001FD6                     i2u164_40:
  4558   001FD6  6C21               	negf	___awmod@dividend^0,c
  4559   001FD8  1E22               	comf	(___awmod@dividend+1)^0,f,c
  4560   001FDA  B0D8               	btfsc	status,0,c
  4561   001FDC  2A22               	incf	(___awmod@dividend+1)^0,f,c
  4562   001FDE                     i2l3949:
  4563   001FDE  C021  F021         	movff	___awmod@dividend,?___awmod
  4564   001FE2  C022  F022         	movff	___awmod@dividend+1,?___awmod+1
  4565   001FE6  0012               	return		;funcret
  4566   001FE8                     __end_of___awmod:
  4567                           	callstack 0
  4568                           
  4569 ;; *************** function ___awdiv *****************
  4570 ;; Defined at:
  4571 ;;		line 7 in file "C:\Program Files\Microchip\xc8\v2.45\pic\sources\c99\common\awdiv.c"
  4572 ;; Parameters:    Size  Location     Type
  4573 ;;  dividend        2    0[COMRAM] int 
  4574 ;;  divisor         2    2[COMRAM] int 
  4575 ;; Auto vars:     Size  Location     Type
  4576 ;;  quotient        2    6[COMRAM] int 
  4577 ;;  sign            1    5[COMRAM] unsigned char 
  4578 ;;  counter         1    4[COMRAM] unsigned char 
  4579 ;; Return value:  Size  Location     Type
  4580 ;;                  2    0[COMRAM] int 
  4581 ;; Registers used:
  4582 ;;		wreg, status,2, status,0
  4583 ;; Tracked objects:
  4584 ;;		On entry : 0/0
  4585 ;;		On exit  : 0/0
  4586 ;;		Unchanged: 0/0
  4587 ;; Data sizes:     COMRAM   BANK0   BANK1   BANK2   BANK3   BANK4   BANK5   BANK6   BANK7   BANK8   BANK9  BANK10  BANK1
      +1  BANK12  BANK13  BANK14  BANK15
  4588 ;;      Params:         4       0       0       0       0       0       0       0       0       0       0       0       
      +0       0       0       0       0
  4589 ;;      Locals:         4       0       0       0       0       0       0       0       0       0       0       0       
      +0       0       0       0       0
  4590 ;;      Temps:          0       0       0       0       0       0       0       0       0       0       0       0       
      +0       0       0       0       0
  4591 ;;      Totals:         8       0       0       0       0       0       0       0       0       0       0       0       
      +0       0       0       0       0
  4592 ;;Total ram usage:        8 bytes
  4593 ;; Hardware stack levels used: 1
  4594 ;; This function calls:
  4595 ;;		Nothing
  4596 ;; This function is called by:
  4597 ;;		_plot1
  4598 ;;		_draw_dec8
  4599 ;;		_plot0
  4600 ;; This function uses a non-reentrant model
  4601 ;;
  4602                           
  4603                           	psect	text18
  4604   001E74                     __ptext18:
  4605                           	callstack 0
  4606   001E74                     ___awdiv:
  4607                           	callstack 26
  4608   001E74  0E00               	movlw	0
  4609   001E76  6E26               	movwf	___awdiv@sign^0,c
  4610   001E78  BE24               	btfsc	(___awdiv@divisor+1)^0,7,c
  4611   001E7A  EF43  F00F         	goto	i2u153_40
  4612   001E7E  EF41  F00F         	goto	i2u153_41
  4613   001E82                     i2u153_41:
  4614   001E82  EF49  F00F         	goto	i2l3881
  4615   001E86                     i2u153_40:
  4616   001E86  6C23               	negf	___awdiv@divisor^0,c
  4617   001E88  1E24               	comf	(___awdiv@divisor+1)^0,f,c
  4618   001E8A  B0D8               	btfsc	status,0,c
  4619   001E8C  2A24               	incf	(___awdiv@divisor+1)^0,f,c
  4620   001E8E  0E01               	movlw	1
  4621   001E90  6E26               	movwf	___awdiv@sign^0,c
  4622   001E92                     i2l3881:
  4623   001E92  BE22               	btfsc	(___awdiv@dividend+1)^0,7,c
  4624   001E94  EF50  F00F         	goto	i2u154_40
  4625   001E98  EF4E  F00F         	goto	i2u154_41
  4626   001E9C                     i2u154_41:
  4627   001E9C  EF56  F00F         	goto	i2l3887
  4628   001EA0                     i2u154_40:
  4629   001EA0  6C21               	negf	___awdiv@dividend^0,c
  4630   001EA2  1E22               	comf	(___awdiv@dividend+1)^0,f,c
  4631   001EA4  B0D8               	btfsc	status,0,c
  4632   001EA6  2A22               	incf	(___awdiv@dividend+1)^0,f,c
  4633   001EA8  0E01               	movlw	1
  4634   001EAA  1A26               	xorwf	___awdiv@sign^0,f,c
  4635   001EAC                     i2l3887:
  4636   001EAC  0E00               	movlw	0
  4637   001EAE  6E28               	movwf	(___awdiv@quotient+1)^0,c
  4638   001EB0  0E00               	movlw	0
  4639   001EB2  6E27               	movwf	___awdiv@quotient^0,c
  4640   001EB4  5023               	movf	___awdiv@divisor^0,w,c
  4641   001EB6  1024               	iorwf	(___awdiv@divisor+1)^0,w,c
  4642   001EB8  B4D8               	btfsc	status,2,c
  4643   001EBA  EF61  F00F         	goto	i2u155_41
  4644   001EBE  EF63  F00F         	goto	i2u155_40
  4645   001EC2                     i2u155_41:
  4646   001EC2  EF8B  F00F         	goto	i2l3909
  4647   001EC6                     i2u155_40:
  4648   001EC6  0E01               	movlw	1
  4649   001EC8  6E25               	movwf	___awdiv@counter^0,c
  4650   001ECA  EF6B  F00F         	goto	i2l3895
  4651   001ECE                     i2l3893:
  4652   001ECE  90D8               	bcf	status,0,c
  4653   001ED0  3623               	rlcf	___awdiv@divisor^0,f,c
  4654   001ED2  3624               	rlcf	(___awdiv@divisor+1)^0,f,c
  4655   001ED4  2A25               	incf	___awdiv@counter^0,f,c
  4656   001ED6                     i2l3895:
  4657   001ED6  AE24               	btfss	(___awdiv@divisor+1)^0,7,c
  4658   001ED8  EF70  F00F         	goto	i2u156_41
  4659   001EDC  EF72  F00F         	goto	i2u156_40
  4660   001EE0                     i2u156_41:
  4661   001EE0  EF67  F00F         	goto	i2l3893
  4662   001EE4                     i2u156_40:
  4663   001EE4                     i2l3897:
  4664   001EE4  90D8               	bcf	status,0,c
  4665   001EE6  3627               	rlcf	___awdiv@quotient^0,f,c
  4666   001EE8  3628               	rlcf	(___awdiv@quotient+1)^0,f,c
  4667   001EEA  5023               	movf	___awdiv@divisor^0,w,c
  4668   001EEC  5C21               	subwf	___awdiv@dividend^0,w,c
  4669   001EEE  5024               	movf	(___awdiv@divisor+1)^0,w,c
  4670   001EF0  5822               	subwfb	(___awdiv@dividend+1)^0,w,c
  4671   001EF2  A0D8               	btfss	status,0,c
  4672   001EF4  EF7E  F00F         	goto	i2u157_41
  4673   001EF8  EF80  F00F         	goto	i2u157_40
  4674   001EFC                     i2u157_41:
  4675   001EFC  EF85  F00F         	goto	i2l3905
  4676   001F00                     i2u157_40:
  4677   001F00  5023               	movf	___awdiv@divisor^0,w,c
  4678   001F02  5E21               	subwf	___awdiv@dividend^0,f,c
  4679   001F04  5024               	movf	(___awdiv@divisor+1)^0,w,c
  4680   001F06  5A22               	subwfb	(___awdiv@dividend+1)^0,f,c
  4681   001F08  8027               	bsf	___awdiv@quotient^0,0,c
  4682   001F0A                     i2l3905:
  4683   001F0A  90D8               	bcf	status,0,c
  4684   001F0C  3224               	rrcf	(___awdiv@divisor+1)^0,f,c
  4685   001F0E  3223               	rrcf	___awdiv@divisor^0,f,c
  4686   001F10  2E25               	decfsz	___awdiv@counter^0,f,c
  4687   001F12  EF72  F00F         	goto	i2l3897
  4688   001F16                     i2l3909:
  4689   001F16  5026               	movf	___awdiv@sign^0,w,c
  4690   001F18  B4D8               	btfsc	status,2,c
  4691   001F1A  EF91  F00F         	goto	i2u158_41
  4692   001F1E  EF93  F00F         	goto	i2u158_40
  4693   001F22                     i2u158_41:
  4694   001F22  EF97  F00F         	goto	i2l3913
  4695   001F26                     i2u158_40:
  4696   001F26  6C27               	negf	___awdiv@quotient^0,c
  4697   001F28  1E28               	comf	(___awdiv@quotient+1)^0,f,c
  4698   001F2A  B0D8               	btfsc	status,0,c
  4699   001F2C  2A28               	incf	(___awdiv@quotient+1)^0,f,c
  4700   001F2E                     i2l3913:
  4701   001F2E  C027  F021         	movff	___awdiv@quotient,?___awdiv
  4702   001F32  C028  F022         	movff	___awdiv@quotient+1,?___awdiv+1
  4703   001F36  0012               	return		;funcret
  4704   001F38                     __end_of___awdiv:
  4705                           	callstack 0
  4706                           
  4707 ;; *************** function _lecture_8bit_analogique *****************
  4708 ;; Defined at:
  4709 ;;		line 60 in file "main.c"
  4710 ;; Parameters:    Size  Location     Type
  4711 ;;  channel         1    wreg     unsigned char 
  4712 ;; Auto vars:     Size  Location     Type
  4713 ;;  channel         1    1[COMRAM] unsigned char 
  4714 ;;  ret             1    0[COMRAM] unsigned char 
  4715 ;; Return value:  Size  Location     Type
  4716 ;;                  1    wreg      unsigned char 
  4717 ;; Registers used:
  4718 ;;		wreg, status,2, status,0
  4719 ;; Tracked objects:
  4720 ;;		On entry : 0/0
  4721 ;;		On exit  : 0/0
  4722 ;;		Unchanged: 0/0
  4723 ;; Data sizes:     COMRAM   BANK0   BANK1   BANK2   BANK3   BANK4   BANK5   BANK6   BANK7   BANK8   BANK9  BANK10  BANK1
      +1  BANK12  BANK13  BANK14  BANK15
  4724 ;;      Params:         0       0       0       0       0       0       0       0       0       0       0       0       
      +0       0       0       0       0
  4725 ;;      Locals:         2       0       0       0       0       0       0       0       0       0       0       0       
      +0       0       0       0       0
  4726 ;;      Temps:          0       0       0       0       0       0       0       0       0       0       0       0       
      +0       0       0       0       0
  4727 ;;      Totals:         2       0       0       0       0       0       0       0       0       0       0       0       
      +0       0       0       0       0
  4728 ;;Total ram usage:        2 bytes
  4729 ;; Hardware stack levels used: 1
  4730 ;; This function calls:
  4731 ;;		Nothing
  4732 ;; This function is called by:
  4733 ;;		_tache1
  4734 ;;		_tache4
  4735 ;; This function uses a non-reentrant model
  4736 ;;
  4737                           
  4738                           	psect	text19
  4739   00235E                     __ptext19:
  4740                           	callstack 0
  4741   00235E                     _lecture_8bit_analogique:
  4742                           	callstack 27
  4743                           
  4744                           ;incstack = 0
  4745                           ;lecture_8bit_analogique@channel stored from wreg
  4746   00235E  6E22               	movwf	lecture_8bit_analogique@channel^0,c
  4747   002360                     
  4748                           ;main.c: 60: unsigned char lecture_8bit_analogique(unsigned char channel);main.c: 61: {;
      +                          main.c: 62:     unsigned char ret;;main.c: 65:     ADCON1=0;
  4749   002360  0E00               	movlw	0
  4750   002362  6EC1               	movwf	193,c	;volatile
  4751                           
  4752                           ;main.c: 66:     ADCON2=0x16;
  4753   002364  0E16               	movlw	22
  4754   002366  6EC0               	movwf	192,c	;volatile
  4755   002368                     
  4756                           ;main.c: 67:     channel=channel&0x1F;
  4757   002368  5022               	movf	lecture_8bit_analogique@channel^0,w,c
  4758   00236A  0B1F               	andlw	31
  4759   00236C  6E22               	movwf	lecture_8bit_analogique@channel^0,c
  4760   00236E                     
  4761                           ;main.c: 68:     channel=channel<<2;
  4762   00236E  4422               	rlncf	lecture_8bit_analogique@channel^0,w,c
  4763   002370  46E8               	rlncf	wreg,f,c
  4764   002372  0BFC               	andlw	252
  4765   002374  6E22               	movwf	lecture_8bit_analogique@channel^0,c
  4766   002376                     
  4767                           ;main.c: 69:     ADCON0=channel|0x01;
  4768   002376  5022               	movf	lecture_8bit_analogique@channel^0,w,c
  4769   002378  0901               	iorlw	1
  4770   00237A  6EC2               	movwf	194,c	;volatile
  4771   00237C                     
  4772                           ;main.c: 71:     ADCON0bits.GO=1;
  4773   00237C  82C2               	bsf	194,1,c	;volatile
  4774   00237E                     i2l148:
  4775                           
  4776                           ;main.c: 72:     while(ADCON0bits.DONE==1)
  4777   00237E  B2C2               	btfsc	194,1,c	;volatile
  4778   002380  EFC4  F011         	goto	i2u25_41
  4779   002384  EFC6  F011         	goto	i2u25_40
  4780   002388                     i2u25_41:
  4781   002388  EFBF  F011         	goto	i2l148
  4782   00238C                     i2u25_40:
  4783   00238C                     
  4784                           ;main.c: 75:     if ((ADRESL&0x01)==0x01)
  4785   00238C  A0C3               	btfss	195,0,c	;volatile
  4786   00238E  EFCB  F011         	goto	i2u26_41
  4787   002392  EFCD  F011         	goto	i2u26_40
  4788   002396                     i2u26_41:
  4789   002396  EFD1  F011         	goto	i2l151
  4790   00239A                     i2u26_40:
  4791   00239A                     
  4792                           ;main.c: 76:         ret=0;
  4793   00239A  0E00               	movlw	0
  4794   00239C  6E21               	movwf	lecture_8bit_analogique@ret^0,c
  4795   00239E  EFD3  F011         	goto	i2l2547
  4796   0023A2                     i2l151:
  4797                           
  4798                           ;main.c: 78:         ret=ADRESH;
  4799   0023A2  CFC4 F021          	movff	4036,lecture_8bit_analogique@ret	;volatile
  4800   0023A6                     i2l2547:
  4801                           
  4802                           ;main.c: 81:     return ret;
  4803   0023A6  5021               	movf	lecture_8bit_analogique@ret^0,w,c
  4804   0023A8  0012               	return		;funcret
  4805   0023AA                     __end_of_lecture_8bit_analogique:
  4806                           	callstack 0
  4807                           
  4808 ;; *************** function _initialisation_afficheur *****************
  4809 ;; Defined at:
  4810 ;;		line 164 in file "afficheur.c"
  4811 ;; Parameters:    Size  Location     Type
  4812 ;;		None
  4813 ;; Auto vars:     Size  Location     Type
  4814 ;;  error_count     1    8[COMRAM] unsigned char 
  4815 ;; Return value:  Size  Location     Type
  4816 ;;                  1    wreg      void 
  4817 ;; Registers used:
  4818 ;;		wreg, status,2, status,0, cstack
  4819 ;; Tracked objects:
  4820 ;;		On entry : 0/0
  4821 ;;		On exit  : 0/0
  4822 ;;		Unchanged: 0/0
  4823 ;; Data sizes:     COMRAM   BANK0   BANK1   BANK2   BANK3   BANK4   BANK5   BANK6   BANK7   BANK8   BANK9  BANK10  BANK1
      +1  BANK12  BANK13  BANK14  BANK15
  4824 ;;      Params:         0       0       0       0       0       0       0       0       0       0       0       0       
      +0       0       0       0       0
  4825 ;;      Locals:         1       0       0       0       0       0       0       0       0       0       0       0       
      +0       0       0       0       0
  4826 ;;      Temps:          0       0       0       0       0       0       0       0       0       0       0       0       
      +0       0       0       0       0
  4827 ;;      Totals:         1       0       0       0       0       0       0       0       0       0       0       0       
      +0       0       0       0       0
  4828 ;;Total ram usage:        1 bytes
  4829 ;; Hardware stack levels used: 1
  4830 ;; Hardware stack levels required when called: 3
  4831 ;; This function calls:
  4832 ;;		_check_status_ok
  4833 ;;		_command
  4834 ;;		_d1command
  4835 ;;		_d2command
  4836 ;;		_delai_us_char
  4837 ;; This function is called by:
  4838 ;;		_tache1
  4839 ;; This function uses a non-reentrant model
  4840 ;;
  4841                           
  4842                           	psect	text20
  4843   001BDE                     __ptext20:
  4844                           	callstack 0
  4845   001BDE                     _initialisation_afficheur:
  4846                           	callstack 24
  4847   001BDE                     
  4848                           ;afficheur.c: 167:     unsigned char error_count;;afficheur.c: 169:     error_count=0;
  4849   001BDE  0E00               	movlw	0
  4850   001BE0  6E29               	movwf	initialisation_afficheur@error_count^0,c
  4851                           
  4852                           ;afficheur.c: 172:     LATH=0;
  4853   001BE2  0E00               	movlw	0
  4854   001BE4  6E90               	movwf	144,c	;volatile
  4855                           
  4856                           ;afficheur.c: 173:     LATJ=0x1F;
  4857   001BE6  0E1F               	movlw	31
  4858   001BE8  6E91               	movwf	145,c	;volatile
  4859                           
  4860                           ;afficheur.c: 176:     TRISH=0;
  4861   001BEA  0E00               	movlw	0
  4862   001BEC  6E99               	movwf	153,c	;volatile
  4863                           
  4864                           ;afficheur.c: 177:     TRISJ=0;
  4865   001BEE  0E00               	movlw	0
  4866   001BF0  6E9A               	movwf	154,c	;volatile
  4867   001BF2                     
  4868                           ;afficheur.c: 180:     LATJbits.LATJ5=0;
  4869   001BF2  9A91               	bcf	145,5,c	;volatile
  4870   001BF4                     
  4871                           ;afficheur.c: 181:     LATJbits.LATJ6=1;
  4872   001BF4  8C91               	bsf	145,6,c	;volatile
  4873   001BF6                     
  4874                           ;afficheur.c: 184:     LATJbits.LATJ4=0;
  4875   001BF6  9891               	bcf	145,4,c	;volatile
  4876   001BF8                     
  4877                           ;afficheur.c: 185:     delai_us_char(4);
  4878   001BF8  0E04               	movlw	4
  4879   001BFA  ECAD  F012         	call	_delai_us_char
  4880   001BFE                     
  4881                           ;afficheur.c: 186:     LATJbits.LATJ4=1;
  4882   001BFE  8891               	bsf	145,4,c	;volatile
  4883   001C00                     
  4884                           ;afficheur.c: 190:     delai_us_char(12);
  4885   001C00  0E0C               	movlw	12
  4886   001C02  ECAD  F012         	call	_delai_us_char
  4887                           
  4888                           ;afficheur.c: 191:     while(check_status_ok()==00)
  4889   001C06  EF17  F00E         	goto	i2l3977
  4890   001C0A                     i2l3967:
  4891                           
  4892                           ;afficheur.c: 192:     {;afficheur.c: 193:         error_count++;
  4893   001C0A  2A29               	incf	initialisation_afficheur@error_count^0,f,c
  4894   001C0C                     
  4895                           ;afficheur.c: 194:         delai_us_char(12);
  4896   001C0C  0E0C               	movlw	12
  4897   001C0E  ECAD  F012         	call	_delai_us_char
  4898   001C12                     
  4899                           ;afficheur.c: 195:         if (error_count>200)
  4900   001C12  0EC8               	movlw	200
  4901   001C14  6429               	cpfsgt	initialisation_afficheur@error_count^0,c
  4902   001C16  EF0F  F00E         	goto	i2u165_41
  4903   001C1A  EF11  F00E         	goto	i2u165_40
  4904   001C1E                     i2u165_41:
  4905   001C1E  EF17  F00E         	goto	i2l3977
  4906   001C22                     i2u165_40:
  4907   001C22                     
  4908                           ;afficheur.c: 196:         {;afficheur.c: 197:             LATCbits.LATC1=1;LATGbits.LAT
      +                          G0=1;LATCbits.LATC2=0;
  4909   001C22  828B               	bsf	139,1,c	;volatile
  4910   001C24  808F               	bsf	143,0,c	;volatile
  4911   001C26  948B               	bcf	139,2,c	;volatile
  4912                           
  4913                           ;afficheur.c: 198:             (INTCONbits.GIE = 0);
  4914   001C28  9EF2               	bcf	242,7,c	;volatile
  4915   001C2A                     i2l1226:
  4916   001C2A  EF15  F00E         	goto	i2l1226
  4917   001C2E                     i2l3977:
  4918                           
  4919                           ;afficheur.c: 191:     while(check_status_ok()==00)
  4920   001C2E  EC3A  F012         	call	_check_status_ok	;wreg free
  4921   001C32  0900               	iorlw	0
  4922   001C34  B4D8               	btfsc	status,2,c
  4923   001C36  EF1F  F00E         	goto	i2u166_41
  4924   001C3A  EF21  F00E         	goto	i2u166_40
  4925   001C3E                     i2u166_41:
  4926   001C3E  EF05  F00E         	goto	i2l3967
  4927   001C42                     i2u166_40:
  4928   001C42                     
  4929                           ;afficheur.c: 205:     d2command(39,15,0x21);
  4930   001C42  0E0F               	movlw	15
  4931   001C44  6E25               	movwf	d2command@d2^0,c
  4932   001C46  0E21               	movlw	33
  4933   001C48  6E26               	movwf	d2command@cmd^0,c
  4934   001C4A  0E27               	movlw	39
  4935   001C4C  EC28  F011         	call	_d2command
  4936                           
  4937                           ;afficheur.c: 206:     d2command(0,0,0x22);
  4938   001C50  0E00               	movlw	0
  4939   001C52  6E25               	movwf	d2command@d2^0,c
  4940   001C54  0E22               	movlw	34
  4941   001C56  6E26               	movwf	d2command@cmd^0,c
  4942   001C58  0E00               	movlw	0
  4943   001C5A  EC28  F011         	call	_d2command
  4944                           
  4945                           ;afficheur.c: 207:     d2command(0,0,0x24);
  4946   001C5E  0E00               	movlw	0
  4947   001C60  6E25               	movwf	d2command@d2^0,c
  4948   001C62  0E24               	movlw	36
  4949   001C64  6E26               	movwf	d2command@cmd^0,c
  4950   001C66  0E00               	movlw	0
  4951   001C68  EC28  F011         	call	_d2command
  4952                           
  4953                           ;afficheur.c: 210:     d2command(0,0x7B,0x40);
  4954   001C6C  0E7B               	movlw	123
  4955   001C6E  6E25               	movwf	d2command@d2^0,c
  4956   001C70  0E40               	movlw	64
  4957   001C72  6E26               	movwf	d2command@cmd^0,c
  4958   001C74  0E00               	movlw	0
  4959   001C76  EC28  F011         	call	_d2command
  4960                           
  4961                           ;afficheur.c: 211:     d2command(40,0,0x41);
  4962   001C7A  0E00               	movlw	0
  4963   001C7C  6E25               	movwf	d2command@d2^0,c
  4964   001C7E  0E41               	movlw	65
  4965   001C80  6E26               	movwf	d2command@cmd^0,c
  4966   001C82  0E28               	movlw	40
  4967   001C84  EC28  F011         	call	_d2command
  4968                           
  4969                           ;afficheur.c: 212:     d2command(0x00,0x80,0x42);
  4970   001C88  0E80               	movlw	128
  4971   001C8A  6E25               	movwf	d2command@d2^0,c
  4972   001C8C  0E42               	movlw	66
  4973   001C8E  6E26               	movwf	d2command@cmd^0,c
  4974   001C90  0E00               	movlw	0
  4975   001C92  EC28  F011         	call	_d2command
  4976                           
  4977                           ;afficheur.c: 213:     d2command(40,0,0x43);
  4978   001C96  0E00               	movlw	0
  4979   001C98  6E25               	movwf	d2command@d2^0,c
  4980   001C9A  0E43               	movlw	67
  4981   001C9C  6E26               	movwf	d2command@cmd^0,c
  4982   001C9E  0E28               	movlw	40
  4983   001CA0  EC28  F011         	call	_d2command
  4984                           
  4985                           ;afficheur.c: 216:     command(0x80);
  4986   001CA4  0E80               	movlw	128
  4987   001CA6  ECFA  F012         	call	_command
  4988                           
  4989                           ;afficheur.c: 219:     command(0x9C);
  4990   001CAA  0E9C               	movlw	156
  4991   001CAC  ECFA  F012         	call	_command
  4992                           
  4993                           ;afficheur.c: 222:     command(0xA0);
  4994   001CB0  0EA0               	movlw	160
  4995   001CB2  ECFA  F012         	call	_command
  4996                           
  4997                           ;afficheur.c: 225:     d1command(0x02,0x70);
  4998   001CB6  0E70               	movlw	112
  4999   001CB8  6E25               	movwf	d1command@cmd^0,c
  5000   001CBA  0E02               	movlw	2
  5001   001CBC  EC88  F011         	call	_d1command
  5002   001CC0  0012               	return		;funcret
  5003   001CC2                     __end_of_initialisation_afficheur:
  5004                           	callstack 0
  5005                           
  5006 ;; *************** function _command *****************
  5007 ;; Defined at:
  5008 ;;		line 90 in file "afficheur.c"
  5009 ;; Parameters:    Size  Location     Type
  5010 ;;  cmd             1    wreg     unsigned char 
  5011 ;; Auto vars:     Size  Location     Type
  5012 ;;  cmd             1    4[COMRAM] unsigned char 
  5013 ;;  res             1    0        unsigned char 
  5014 ;; Return value:  Size  Location     Type
  5015 ;;                  1    wreg      unsigned char 
  5016 ;; Registers used:
  5017 ;;		wreg, status,2, status,0, cstack
  5018 ;; Tracked objects:
  5019 ;;		On entry : 0/0
  5020 ;;		On exit  : 0/0
  5021 ;;		Unchanged: 0/0
  5022 ;; Data sizes:     COMRAM   BANK0   BANK1   BANK2   BANK3   BANK4   BANK5   BANK6   BANK7   BANK8   BANK9  BANK10  BANK1
      +1  BANK12  BANK13  BANK14  BANK15
  5023 ;;      Params:         0       0       0       0       0       0       0       0       0       0       0       0       
      +0       0       0       0       0
  5024 ;;      Locals:         1       0       0       0       0       0       0       0       0       0       0       0       
      +0       0       0       0       0
  5025 ;;      Temps:          0       0       0       0       0       0       0       0       0       0       0       0       
      +0       0       0       0       0
  5026 ;;      Totals:         1       0       0       0       0       0       0       0       0       0       0       0       
      +0       0       0       0       0
  5027 ;;Total ram usage:        1 bytes
  5028 ;; Hardware stack levels used: 1
  5029 ;; Hardware stack levels required when called: 2
  5030 ;; This function calls:
  5031 ;;		_delai_us_char
  5032 ;;		_wait_status_ok
  5033 ;;		_write_c_aff
  5034 ;; This function is called by:
  5035 ;;		_initialisation_afficheur
  5036 ;;		_plot1
  5037 ;;		_plot0
  5038 ;; This function uses a non-reentrant model
  5039 ;;
  5040                           
  5041                           	psect	text21
  5042   0025F4                     __ptext21:
  5043                           	callstack 0
  5044   0025F4                     _command:
  5045                           	callstack 24
  5046                           
  5047                           ;incstack = 0
  5048                           ;command@cmd stored from wreg
  5049   0025F4  6E25               	movwf	command@cmd^0,c
  5050   0025F6                     
  5051                           ;afficheur.c: 96:     if(wait_status_ok()==1)
  5052   0025F6  EC78  F010         	call	_wait_status_ok	;wreg free
  5053   0025FA  06E8               	decf	wreg,f,c
  5054   0025FC  A4D8               	btfss	status,2,c
  5055   0025FE  EF03  F013         	goto	i2u6_41
  5056   002602  EF05  F013         	goto	i2u6_40
  5057   002606                     i2u6_41:
  5058   002606  EF0B  F013         	goto	i2l1203
  5059   00260A                     i2u6_40:
  5060   00260A                     
  5061                           ;afficheur.c: 97:     {;afficheur.c: 98:         delai_us_char(12);
  5062   00260A  0E0C               	movlw	12
  5063   00260C  ECAD  F012         	call	_delai_us_char
  5064   002610                     
  5065                           ;afficheur.c: 99:         write_c_aff(cmd);
  5066   002610  5025               	movf	command@cmd^0,w,c
  5067   002612  EC39  F013         	call	_write_c_aff
  5068   002616                     i2l1203:
  5069   002616  0012               	return		;funcret
  5070   002618                     __end_of_command:
  5071                           	callstack 0
  5072                           
  5073 ;; *************** function _check_status_ok *****************
  5074 ;; Defined at:
  5075 ;;		line 30 in file "afficheur.c"
  5076 ;; Parameters:    Size  Location     Type
  5077 ;;		None
  5078 ;; Auto vars:     Size  Location     Type
  5079 ;;  res             1    0[COMRAM] unsigned char 
  5080 ;; Return value:  Size  Location     Type
  5081 ;;                  1    wreg      unsigned char 
  5082 ;; Registers used:
  5083 ;;		wreg, status,2, status,0
  5084 ;; Tracked objects:
  5085 ;;		On entry : 0/0
  5086 ;;		On exit  : 0/0
  5087 ;;		Unchanged: 0/0
  5088 ;; Data sizes:     COMRAM   BANK0   BANK1   BANK2   BANK3   BANK4   BANK5   BANK6   BANK7   BANK8   BANK9  BANK10  BANK1
      +1  BANK12  BANK13  BANK14  BANK15
  5089 ;;      Params:         0       0       0       0       0       0       0       0       0       0       0       0       
      +0       0       0       0       0
  5090 ;;      Locals:         1       0       0       0       0       0       0       0       0       0       0       0       
      +0       0       0       0       0
  5091 ;;      Temps:          0       0       0       0       0       0       0       0       0       0       0       0       
      +0       0       0       0       0
  5092 ;;      Totals:         1       0       0       0       0       0       0       0       0       0       0       0       
      +0       0       0       0       0
  5093 ;;Total ram usage:        1 bytes
  5094 ;; Hardware stack levels used: 1
  5095 ;; This function calls:
  5096 ;;		Nothing
  5097 ;; This function is called by:
  5098 ;;		_initialisation_afficheur
  5099 ;; This function uses a non-reentrant model
  5100 ;;
  5101                           
  5102                           	psect	text22
  5103   002474                     __ptext22:
  5104                           	callstack 0
  5105   002474                     _check_status_ok:
  5106                           	callstack 26
  5107   002474                     
  5108                           ;afficheur.c: 32:     unsigned char res;;afficheur.c: 35:     TRISH=0xFF;
  5109   002474  6899               	setf	153,c	;volatile
  5110                           
  5111                           ;afficheur.c: 36:     LATJbits.LATJ0=1;
  5112   002476  8091               	bsf	145,0,c	;volatile
  5113                           
  5114                           ;afficheur.c: 37:     LATJbits.LATJ3=0;
  5115   002478  9691               	bcf	145,3,c	;volatile
  5116                           
  5117                           ;afficheur.c: 38:     LATJbits.LATJ1=0;
  5118   00247A  9291               	bcf	145,1,c	;volatile
  5119                           
  5120                           ;afficheur.c: 39:     __nop();
  5121   00247C  0000               	nop	
  5122                           
  5123                           ;afficheur.c: 40:     __nop();
  5124   00247E  0000               	nop	
  5125                           
  5126                           ;afficheur.c: 41:     __nop();
  5127   002480  0000               	nop	
  5128                           
  5129                           ;afficheur.c: 42:     res=PORTH;
  5130   002482  CF87 F021          	movff	3975,check_status_ok@res	;volatile
  5131                           
  5132                           ;afficheur.c: 43:     LATJbits.LATJ1=1;
  5133   002486  8291               	bsf	145,1,c	;volatile
  5134                           
  5135                           ;afficheur.c: 44:     LATJbits.LATJ3=1;
  5136   002488  8691               	bsf	145,3,c	;volatile
  5137   00248A                     
  5138                           ;afficheur.c: 46:     if ((res&0x03)==0x03)
  5139   00248A  5021               	movf	check_status_ok@res^0,w,c
  5140   00248C  0B03               	andlw	3
  5141   00248E  0A03               	xorlw	3
  5142   002490  A4D8               	btfss	status,2,c
  5143   002492  EF4D  F012         	goto	i2u5_41
  5144   002496  EF4F  F012         	goto	i2u5_40
  5145   00249A                     i2u5_41:
  5146   00249A  EF53  F012         	goto	i2l2387
  5147   00249E                     i2u5_40:
  5148   00249E                     
  5149                           ;afficheur.c: 47:         res=1;
  5150   00249E  0E01               	movlw	1
  5151   0024A0  6E21               	movwf	check_status_ok@res^0,c
  5152   0024A2  EF55  F012         	goto	i2l1189
  5153   0024A6                     i2l2387:
  5154                           
  5155                           ;afficheur.c: 49:         res=0;
  5156   0024A6  0E00               	movlw	0
  5157   0024A8  6E21               	movwf	check_status_ok@res^0,c
  5158   0024AA                     i2l1189:
  5159                           
  5160                           ;afficheur.c: 50:     return res;
  5161   0024AA  5021               	movf	check_status_ok@res^0,w,c
  5162   0024AC  0012               	return		;funcret
  5163   0024AE                     __end_of_check_status_ok:
  5164                           	callstack 0
  5165                           
  5166 ;; *************** function _init_rxtx *****************
  5167 ;; Defined at:
  5168 ;;		line 4 in file "rxtx.c"
  5169 ;; Parameters:    Size  Location     Type
  5170 ;;		None
  5171 ;; Auto vars:     Size  Location     Type
  5172 ;;		None
  5173 ;; Return value:  Size  Location     Type
  5174 ;;                  1    wreg      void 
  5175 ;; Registers used:
  5176 ;;		wreg, status,2
  5177 ;; Tracked objects:
  5178 ;;		On entry : 0/0
  5179 ;;		On exit  : 0/0
  5180 ;;		Unchanged: 0/0
  5181 ;; Data sizes:     COMRAM   BANK0   BANK1   BANK2   BANK3   BANK4   BANK5   BANK6   BANK7   BANK8   BANK9  BANK10  BANK1
      +1  BANK12  BANK13  BANK14  BANK15
  5182 ;;      Params:         0       0       0       0       0       0       0       0       0       0       0       0       
      +0       0       0       0       0
  5183 ;;      Locals:         0       0       0       0       0       0       0       0       0       0       0       0       
      +0       0       0       0       0
  5184 ;;      Temps:          0       0       0       0       0       0       0       0       0       0       0       0       
      +0       0       0       0       0
  5185 ;;      Totals:         0       0       0       0       0       0       0       0       0       0       0       0       
      +0       0       0       0       0
  5186 ;;Total ram usage:        0 bytes
  5187 ;; Hardware stack levels used: 1
  5188 ;; This function calls:
  5189 ;;		Nothing
  5190 ;; This function is called by:
  5191 ;;		_tache1
  5192 ;; This function uses a non-reentrant model
  5193 ;;
  5194                           
  5195                           	psect	text23
  5196   002618                     __ptext23:
  5197                           	callstack 0
  5198   002618                     _init_rxtx:
  5199                           	callstack 27
  5200   002618                     
  5201                           ;rxtx.c: 6:     TRISCbits.TRISC6=0;
  5202   002618  9C94               	bcf	148,6,c	;volatile
  5203                           
  5204                           ;rxtx.c: 7:     TRISCbits.TRISC7=1;
  5205   00261A  8E94               	bsf	148,7,c	;volatile
  5206   00261C                     
  5207                           ;rxtx.c: 8:     BAUDCON1=0x08;
  5208   00261C  0E08               	movlw	8
  5209   00261E  6E65               	movwf	101,c	;volatile
  5210                           
  5211                           ;rxtx.c: 9:     SPBRGH1=0x04;
  5212   002620  0E04               	movlw	4
  5213   002622  6ED4               	movwf	212,c	;volatile
  5214                           
  5215                           ;rxtx.c: 10:     SPBRG1=0xE1;
  5216   002624  0EE1               	movlw	225
  5217   002626  6EAF               	movwf	175,c	;volatile
  5218                           
  5219                           ;rxtx.c: 11:     TXSTA1=0x04;
  5220   002628  0E04               	movlw	4
  5221   00262A  6EAC               	movwf	172,c	;volatile
  5222                           
  5223                           ;rxtx.c: 12:     RCSTA1=0x80;
  5224   00262C  0E80               	movlw	128
  5225   00262E  6EAB               	movwf	171,c	;volatile
  5226                           
  5227                           ;rxtx.c: 13:     TXSTA1=0x24;
  5228   002630  0E24               	movlw	36
  5229   002632  6EAC               	movwf	172,c	;volatile
  5230                           
  5231                           ;rxtx.c: 14:     RCSTA1=0x90;
  5232   002634  0E90               	movlw	144
  5233   002636  6EAB               	movwf	171,c	;volatile
  5234   002638  0012               	return		;funcret
  5235   00263A                     __end_of_init_rxtx:
  5236                           	callstack 0
  5237                           
  5238 ;; *************** function _goto_lico *****************
  5239 ;; Defined at:
  5240 ;;		line 295 in file "afficheur.c"
  5241 ;; Parameters:    Size  Location     Type
  5242 ;;  ligne           1    wreg     unsigned char 
  5243 ;;  colonne         1    8[COMRAM] unsigned char 
  5244 ;; Auto vars:     Size  Location     Type
  5245 ;;  ligne           1   11[COMRAM] unsigned char 
  5246 ;;  adr             2   12[COMRAM] unsigned int 
  5247 ;; Return value:  Size  Location     Type
  5248 ;;                  1    wreg      void 
  5249 ;; Registers used:
  5250 ;;		wreg, status,2, status,0, prodl, prodh, cstack
  5251 ;; Tracked objects:
  5252 ;;		On entry : 0/0
  5253 ;;		On exit  : 0/0
  5254 ;;		Unchanged: 0/0
  5255 ;; Data sizes:     COMRAM   BANK0   BANK1   BANK2   BANK3   BANK4   BANK5   BANK6   BANK7   BANK8   BANK9  BANK10  BANK1
      +1  BANK12  BANK13  BANK14  BANK15
  5256 ;;      Params:         1       0       0       0       0       0       0       0       0       0       0       0       
      +0       0       0       0       0
  5257 ;;      Locals:         3       0       0       0       0       0       0       0       0       0       0       0       
      +0       0       0       0       0
  5258 ;;      Temps:          2       0       0       0       0       0       0       0       0       0       0       0       
      +0       0       0       0       0
  5259 ;;      Totals:         6       0       0       0       0       0       0       0       0       0       0       0       
      +0       0       0       0       0
  5260 ;;Total ram usage:        6 bytes
  5261 ;; Hardware stack levels used: 1
  5262 ;; Hardware stack levels required when called: 3
  5263 ;; This function calls:
  5264 ;;		_d2command
  5265 ;; This function is called by:
  5266 ;;		_tache1
  5267 ;; This function uses a non-reentrant model
  5268 ;;
  5269                           
  5270                           	psect	text24
  5271   002078                     __ptext24:
  5272                           	callstack 0
  5273   002078                     _goto_lico:
  5274                           	callstack 24
  5275                           
  5276                           ;incstack = 0
  5277                           ;goto_lico@ligne stored from wreg
  5278   002078  6E2C               	movwf	goto_lico@ligne^0,c
  5279   00207A                     
  5280                           ;afficheur.c: 295: void goto_lico(unsigned char ligne, unsigned char colonne);afficheur.
      +                          c: 296: {;afficheur.c: 297:     unsigned int adr;;afficheur.c: 299:     adr=0x7B00;
  5281   00207A  0E7B               	movlw	123
  5282   00207C  6E2E               	movwf	(goto_lico@adr+1)^0,c
  5283   00207E  0E00               	movlw	0
  5284   002080  6E2D               	movwf	goto_lico@adr^0,c
  5285   002082                     
  5286                           ;afficheur.c: 300:     if (ligne>15) ligne=0;
  5287   002082  0E0F               	movlw	15
  5288   002084  642C               	cpfsgt	goto_lico@ligne^0,c
  5289   002086  EF47  F010         	goto	i2u169_41
  5290   00208A  EF49  F010         	goto	i2u169_40
  5291   00208E                     i2u169_41:
  5292   00208E  EF4B  F010         	goto	i2l4015
  5293   002092                     i2u169_40:
  5294   002092  0E00               	movlw	0
  5295   002094  6E2C               	movwf	goto_lico@ligne^0,c
  5296   002096                     i2l4015:
  5297                           
  5298                           ;afficheur.c: 301:     if (colonne>39) colonne=0;
  5299   002096  0E27               	movlw	39
  5300   002098  6429               	cpfsgt	goto_lico@colonne^0,c
  5301   00209A  EF51  F010         	goto	i2u170_41
  5302   00209E  EF53  F010         	goto	i2u170_40
  5303   0020A2                     i2u170_41:
  5304   0020A2  EF55  F010         	goto	i2l4019
  5305   0020A6                     i2u170_40:
  5306   0020A6  0E00               	movlw	0
  5307   0020A8  6E29               	movwf	goto_lico@colonne^0,c
  5308   0020AA                     i2l4019:
  5309                           
  5310                           ;afficheur.c: 302:     adr=adr+40*ligne+colonne;
  5311   0020AA  502C               	movf	goto_lico@ligne^0,w,c
  5312   0020AC  0D28               	mullw	40
  5313   0020AE  CFF3 F02A          	movff	prodl,??_goto_lico
  5314   0020B2  CFF4 F02B          	movff	prodh,??_goto_lico+1
  5315   0020B6  5029               	movf	goto_lico@colonne^0,w,c
  5316   0020B8  262A               	addwf	??_goto_lico^0,f,c
  5317   0020BA  0E00               	movlw	0
  5318   0020BC  222B               	addwfc	(??_goto_lico+1)^0,f,c
  5319   0020BE  502D               	movf	goto_lico@adr^0,w,c
  5320   0020C0  242A               	addwf	??_goto_lico^0,w,c
  5321   0020C2  6E2D               	movwf	goto_lico@adr^0,c
  5322   0020C4  502E               	movf	(goto_lico@adr+1)^0,w,c
  5323   0020C6  202B               	addwfc	(??_goto_lico+1)^0,w,c
  5324   0020C8  6E2E               	movwf	(goto_lico@adr+1)^0,c
  5325                           
  5326                           ;afficheur.c: 303:     while(d2command((unsigned char)(adr&0x00FF),(unsigned char)(adr>>
      +                          8),0x24)==0)
  5327   0020CA  EF68  F010         	goto	i2l4021
  5328   0020CE                     i2l1280:
  5329                           
  5330                           ;afficheur.c: 304:         __nop();
  5331   0020CE  0000               	nop	
  5332   0020D0                     i2l4021:
  5333                           
  5334                           ;afficheur.c: 303:     while(d2command((unsigned char)(adr&0x00FF),(unsigned char)(adr>>
      +                          8),0x24)==0)
  5335   0020D0  502E               	movf	(goto_lico@adr+1)^0,w,c
  5336   0020D2  6E25               	movwf	d2command@d2^0,c
  5337   0020D4  0E24               	movlw	36
  5338   0020D6  6E26               	movwf	d2command@cmd^0,c
  5339   0020D8  502D               	movf	goto_lico@adr^0,w,c
  5340   0020DA  EC28  F011         	call	_d2command
  5341   0020DE  0900               	iorlw	0
  5342   0020E0  B4D8               	btfsc	status,2,c
  5343   0020E2  EF75  F010         	goto	i2u171_41
  5344   0020E6  EF77  F010         	goto	i2u171_40
  5345   0020EA                     i2u171_41:
  5346   0020EA  EF67  F010         	goto	i2l1280
  5347   0020EE                     i2u171_40:
  5348   0020EE  0012               	return		;funcret
  5349   0020F0                     __end_of_goto_lico:
  5350                           	callstack 0
  5351                           
  5352 ;; *************** function _draw_string *****************
  5353 ;; Defined at:
  5354 ;;		line 242 in file "afficheur.c"
  5355 ;; Parameters:    Size  Location     Type
  5356 ;;  tableau         1    7[COMRAM] PTR unsigned char 
  5357 ;;		 -> STR_18(4), STR_17(3), STR_16(12), STR_15(12), 
  5358 ;;		 -> STR_14(21), STR_13(7), STR_12(6), STR_11(6), 
  5359 ;;		 -> STR_10(10), STR_9(9), STR_8(6), STR_7(13), 
  5360 ;;		 -> STR_6(11), STR_5(7), STR_4(3), STR_3(3), 
  5361 ;;		 -> STR_2(3), STR_1(8), 
  5362 ;; Auto vars:     Size  Location     Type
  5363 ;;		None
  5364 ;; Return value:  Size  Location     Type
  5365 ;;                  1    wreg      void 
  5366 ;; Registers used:
  5367 ;;		wreg, status,2, status,0, tblptrl, tblptrh, tblptru, cstack
  5368 ;; Tracked objects:
  5369 ;;		On entry : 0/0
  5370 ;;		On exit  : 0/0
  5371 ;;		Unchanged: 0/0
  5372 ;; Data sizes:     COMRAM   BANK0   BANK1   BANK2   BANK3   BANK4   BANK5   BANK6   BANK7   BANK8   BANK9  BANK10  BANK1
      +1  BANK12  BANK13  BANK14  BANK15
  5373 ;;      Params:         1       0       0       0       0       0       0       0       0       0       0       0       
      +0       0       0       0       0
  5374 ;;      Locals:         0       0       0       0       0       0       0       0       0       0       0       0       
      +0       0       0       0       0
  5375 ;;      Temps:          0       0       0       0       0       0       0       0       0       0       0       0       
      +0       0       0       0       0
  5376 ;;      Totals:         1       0       0       0       0       0       0       0       0       0       0       0       
      +0       0       0       0       0
  5377 ;;Total ram usage:        1 bytes
  5378 ;; Hardware stack levels used: 1
  5379 ;; Hardware stack levels required when called: 3
  5380 ;; This function calls:
  5381 ;;		_d1command
  5382 ;; This function is called by:
  5383 ;;		_tache1
  5384 ;; This function uses a non-reentrant model
  5385 ;;
  5386                           
  5387                           	psect	text25
  5388   0021DC                     __ptext25:
  5389                           	callstack 0
  5390   0021DC                     _draw_string:
  5391                           	callstack 24
  5392   0021DC                     
  5393                           ;afficheur.c: 242: void draw_string(unsigned char * tableau);afficheur.c: 243: {;affiche
      +                          ur.c: 244:     while( (tableau[0]!=0) && (tableau[0]!='\0') )
  5394   0021DC  EF07  F011         	goto	i2l4041
  5395   0021E0                     i2l1244:
  5396                           
  5397                           ;afficheur.c: 247:             __nop();
  5398   0021E0  0000               	nop	
  5399   0021E2                     i2l4037:
  5400                           
  5401                           ;afficheur.c: 246:         while(d1command(tableau[0]-32,0xC0)==0)
  5402   0021E2  0EC0               	movlw	192
  5403   0021E4  6E25               	movwf	d1command@cmd^0,c
  5404   0021E6  C028  FFF6         	movff	draw_string@tableau,tblptrl
  5405   0021EA                     	if	1	;There is more than 1 active tblptr byte
  5406   0021EA  0E10               	movlw	high __smallconst
  5407   0021EC  6EF7               	movwf	tblptrh,c
  5408   0021EE                     	endif
  5409   0021EE                     	if	0	;tblptru may be non-zero
  5410   0021EE                     	endif
  5411   0021EE                     	if	1	;Program memory is > 0xFFFF, there are 3 active tblptr bytes
  5412   0021EE  0E00               	movlw	low (__smallconst shr (0+16))
  5413   0021F0  6EF8               	movwf	tblptru,c
  5414   0021F2                     	endif
  5415   0021F2  0008               	tblrd		*
  5416   0021F4  50F5               	movf	tablat,w,c
  5417   0021F6  0FE0               	addlw	224
  5418   0021F8  EC88  F011         	call	_d1command
  5419   0021FC  0900               	iorlw	0
  5420   0021FE  B4D8               	btfsc	status,2,c
  5421   002200  EF04  F011         	goto	i2u175_41
  5422   002204  EF06  F011         	goto	i2u175_40
  5423   002208                     i2u175_41:
  5424   002208  EFF0  F010         	goto	i2l1244
  5425   00220C                     i2u175_40:
  5426   00220C                     
  5427                           ;afficheur.c: 248:         tableau++;
  5428   00220C  2A28               	incf	draw_string@tableau^0,f,c
  5429   00220E                     i2l4041:
  5430                           
  5431                           ;afficheur.c: 244:     while( (tableau[0]!=0) && (tableau[0]!='\0') )
  5432   00220E  C028  FFF6         	movff	draw_string@tableau,tblptrl
  5433   002212                     	if	1	;There is more than 1 active tblptr byte
  5434   002212  0E10               	movlw	high __smallconst
  5435   002214  6EF7               	movwf	tblptrh,c
  5436   002216                     	endif
  5437   002216                     	if	0	;tblptru may be non-zero
  5438   002216                     	endif
  5439   002216                     	if	1	;Program memory is > 0xFFFF, there are 3 active tblptr bytes
  5440   002216  0E00               	movlw	low (__smallconst shr (0+16))
  5441   002218  6EF8               	movwf	tblptru,c
  5442   00221A                     	endif
  5443   00221A  0008               	tblrd		*
  5444   00221C  50F5               	movf	tablat,w,c
  5445   00221E  0900               	iorlw	0
  5446   002220  B4D8               	btfsc	status,2,c
  5447   002222  EF15  F011         	goto	i2u176_41
  5448   002226  EF17  F011         	goto	i2u176_40
  5449   00222A                     i2u176_41:
  5450   00222A  EF27  F011         	goto	i2l1249
  5451   00222E                     i2u176_40:
  5452   00222E  C028  FFF6         	movff	draw_string@tableau,tblptrl
  5453   002232                     	if	1	;There is more than 1 active tblptr byte
  5454   002232  0E10               	movlw	high __smallconst
  5455   002234  6EF7               	movwf	tblptrh,c
  5456   002236                     	endif
  5457   002236                     	if	0	;tblptru may be non-zero
  5458   002236                     	endif
  5459   002236                     	if	1	;Program memory is > 0xFFFF, there are 3 active tblptr bytes
  5460   002236  0E00               	movlw	low (__smallconst shr (0+16))
  5461   002238  6EF8               	movwf	tblptru,c
  5462   00223A                     	endif
  5463   00223A  0008               	tblrd		*
  5464   00223C  50F5               	movf	tablat,w,c
  5465   00223E  0900               	iorlw	0
  5466   002240  A4D8               	btfss	status,2,c
  5467   002242  EF25  F011         	goto	i2u177_41
  5468   002246  EF27  F011         	goto	i2u177_40
  5469   00224A                     i2u177_41:
  5470   00224A  EFF1  F010         	goto	i2l4037
  5471   00224E                     i2u177_40:
  5472   00224E                     i2l1249:
  5473   00224E  0012               	return		;funcret
  5474   002250                     __end_of_draw_string:
  5475                           	callstack 0
  5476                           
  5477 ;; *************** function _draw_hex8 *****************
  5478 ;; Defined at:
  5479 ;;		line 252 in file "afficheur.c"
  5480 ;; Parameters:    Size  Location     Type
  5481 ;;  octet           1    wreg     unsigned char 
  5482 ;; Auto vars:     Size  Location     Type
  5483 ;;  octet           1    7[COMRAM] unsigned char 
  5484 ;;  c               1    8[COMRAM] unsigned char 
  5485 ;; Return value:  Size  Location     Type
  5486 ;;                  1    wreg      void 
  5487 ;; Registers used:
  5488 ;;		wreg, status,2, status,0, cstack
  5489 ;; Tracked objects:
  5490 ;;		On entry : 0/0
  5491 ;;		On exit  : 0/0
  5492 ;;		Unchanged: 0/0
  5493 ;; Data sizes:     COMRAM   BANK0   BANK1   BANK2   BANK3   BANK4   BANK5   BANK6   BANK7   BANK8   BANK9  BANK10  BANK1
      +1  BANK12  BANK13  BANK14  BANK15
  5494 ;;      Params:         0       0       0       0       0       0       0       0       0       0       0       0       
      +0       0       0       0       0
  5495 ;;      Locals:         2       0       0       0       0       0       0       0       0       0       0       0       
      +0       0       0       0       0
  5496 ;;      Temps:          0       0       0       0       0       0       0       0       0       0       0       0       
      +0       0       0       0       0
  5497 ;;      Totals:         2       0       0       0       0       0       0       0       0       0       0       0       
      +0       0       0       0       0
  5498 ;;Total ram usage:        2 bytes
  5499 ;; Hardware stack levels used: 1
  5500 ;; Hardware stack levels required when called: 3
  5501 ;; This function calls:
  5502 ;;		_d1command
  5503 ;; This function is called by:
  5504 ;;		_tache1
  5505 ;; This function uses a non-reentrant model
  5506 ;;
  5507                           
  5508                           	psect	text26
  5509   001FE8                     __ptext26:
  5510                           	callstack 0
  5511   001FE8                     _draw_hex8:
  5512                           	callstack 24
  5513                           
  5514                           ;incstack = 0
  5515                           ;draw_hex8@octet stored from wreg
  5516   001FE8  6E28               	movwf	draw_hex8@octet^0,c
  5517   001FEA                     
  5518                           ;afficheur.c: 252: void draw_hex8(unsigned char octet);afficheur.c: 253: {;afficheur.c: 
      +                          254:     unsigned char c;;afficheur.c: 256:     c=(octet>>4);
  5519   001FEA  3828               	swapf	draw_hex8@octet^0,w,c
  5520   001FEC  0B0F               	andlw	15
  5521   001FEE  6E29               	movwf	draw_hex8@c^0,c
  5522                           
  5523                           ;afficheur.c: 257:     if (c>9)
  5524   001FF0  0E09               	movlw	9
  5525   001FF2  6429               	cpfsgt	draw_hex8@c^0,c
  5526   001FF4  EFFE  F00F         	goto	i2u178_41
  5527   001FF8  EF00  F010         	goto	i2u178_40
  5528   001FFC                     i2u178_41:
  5529   001FFC  EF05  F010         	goto	i2l4049
  5530   002000                     i2u178_40:
  5531   002000                     
  5532                           ;afficheur.c: 258:         c=c+0x17;
  5533   002000  5029               	movf	draw_hex8@c^0,w,c
  5534   002002  0F17               	addlw	23
  5535   002004  6E29               	movwf	draw_hex8@c^0,c
  5536   002006  EF0B  F010         	goto	i2l4051
  5537   00200A                     i2l4049:
  5538                           
  5539                           ;afficheur.c: 260:         c=c+0x10;
  5540   00200A  5029               	movf	draw_hex8@c^0,w,c
  5541   00200C  0F10               	addlw	16
  5542   00200E  6E29               	movwf	draw_hex8@c^0,c
  5543   002010  EF0B  F010         	goto	i2l4051
  5544   002014                     i2l1255:
  5545                           
  5546                           ;afficheur.c: 262:         __nop();
  5547   002014  0000               	nop	
  5548   002016                     i2l4051:
  5549                           
  5550                           ;afficheur.c: 261:     while(d1command(c,0xC0)==0)
  5551   002016  0EC0               	movlw	192
  5552   002018  6E25               	movwf	d1command@cmd^0,c
  5553   00201A  5029               	movf	draw_hex8@c^0,w,c
  5554   00201C  EC88  F011         	call	_d1command
  5555   002020  0900               	iorlw	0
  5556   002022  B4D8               	btfsc	status,2,c
  5557   002024  EF16  F010         	goto	i2u179_41
  5558   002028  EF18  F010         	goto	i2u179_40
  5559   00202C                     i2u179_41:
  5560   00202C  EF0A  F010         	goto	i2l1255
  5561   002030                     i2u179_40:
  5562   002030                     
  5563                           ;afficheur.c: 264:     c=(octet&0x0F);
  5564   002030  5028               	movf	draw_hex8@octet^0,w,c
  5565   002032  0B0F               	andlw	15
  5566   002034  6E29               	movwf	draw_hex8@c^0,c
  5567                           
  5568                           ;afficheur.c: 265:     if (c>9)
  5569   002036  0E09               	movlw	9
  5570   002038  6429               	cpfsgt	draw_hex8@c^0,c
  5571   00203A  EF21  F010         	goto	i2u180_41
  5572   00203E  EF23  F010         	goto	i2u180_40
  5573   002042                     i2u180_41:
  5574   002042  EF28  F010         	goto	i2l4057
  5575   002046                     i2u180_40:
  5576   002046                     
  5577                           ;afficheur.c: 266:         c=c+0x17;
  5578   002046  5029               	movf	draw_hex8@c^0,w,c
  5579   002048  0F17               	addlw	23
  5580   00204A  6E29               	movwf	draw_hex8@c^0,c
  5581   00204C  EF2E  F010         	goto	i2l4059
  5582   002050                     i2l4057:
  5583                           
  5584                           ;afficheur.c: 268:         c=c+0x10;
  5585   002050  5029               	movf	draw_hex8@c^0,w,c
  5586   002052  0F10               	addlw	16
  5587   002054  6E29               	movwf	draw_hex8@c^0,c
  5588   002056  EF2E  F010         	goto	i2l4059
  5589   00205A                     i2l1260:
  5590                           
  5591                           ;afficheur.c: 270:         __nop();
  5592   00205A  0000               	nop	
  5593   00205C                     i2l4059:
  5594                           
  5595                           ;afficheur.c: 269:     while(d1command(c,0xC0)==0)
  5596   00205C  0EC0               	movlw	192
  5597   00205E  6E25               	movwf	d1command@cmd^0,c
  5598   002060  5029               	movf	draw_hex8@c^0,w,c
  5599   002062  EC88  F011         	call	_d1command
  5600   002066  0900               	iorlw	0
  5601   002068  B4D8               	btfsc	status,2,c
  5602   00206A  EF39  F010         	goto	i2u181_41
  5603   00206E  EF3B  F010         	goto	i2u181_40
  5604   002072                     i2u181_41:
  5605   002072  EF2D  F010         	goto	i2l1260
  5606   002076                     i2u181_40:
  5607   002076  0012               	return		;funcret
  5608   002078                     __end_of_draw_hex8:
  5609                           	callstack 0
  5610                           
  5611 ;; *************** function _draw_char *****************
  5612 ;; Defined at:
  5613 ;;		line 228 in file "afficheur.c"
  5614 ;; Parameters:    Size  Location     Type
  5615 ;;  dccar           1    wreg     unsigned char 
  5616 ;; Auto vars:     Size  Location     Type
  5617 ;;  dccar           1    7[COMRAM] unsigned char 
  5618 ;; Return value:  Size  Location     Type
  5619 ;;                  1    wreg      void 
  5620 ;; Registers used:
  5621 ;;		wreg, status,2, status,0, cstack
  5622 ;; Tracked objects:
  5623 ;;		On entry : 0/0
  5624 ;;		On exit  : 0/0
  5625 ;;		Unchanged: 0/0
  5626 ;; Data sizes:     COMRAM   BANK0   BANK1   BANK2   BANK3   BANK4   BANK5   BANK6   BANK7   BANK8   BANK9  BANK10  BANK1
      +1  BANK12  BANK13  BANK14  BANK15
  5627 ;;      Params:         0       0       0       0       0       0       0       0       0       0       0       0       
      +0       0       0       0       0
  5628 ;;      Locals:         1       0       0       0       0       0       0       0       0       0       0       0       
      +0       0       0       0       0
  5629 ;;      Temps:          0       0       0       0       0       0       0       0       0       0       0       0       
      +0       0       0       0       0
  5630 ;;      Totals:         1       0       0       0       0       0       0       0       0       0       0       0       
      +0       0       0       0       0
  5631 ;;Total ram usage:        1 bytes
  5632 ;; Hardware stack levels used: 1
  5633 ;; Hardware stack levels required when called: 3
  5634 ;; This function calls:
  5635 ;;		_d1command
  5636 ;; This function is called by:
  5637 ;;		_tache1
  5638 ;; This function uses a non-reentrant model
  5639 ;;
  5640                           
  5641                           	psect	text27
  5642   0022BE                     __ptext27:
  5643                           	callstack 0
  5644   0022BE                     _draw_char:
  5645                           	callstack 24
  5646                           
  5647                           ;incstack = 0
  5648                           ;draw_char@dccar stored from wreg
  5649   0022BE  6E28               	movwf	draw_char@dccar^0,c
  5650   0022C0                     
  5651                           ;afficheur.c: 228: void draw_char(unsigned char dccar);afficheur.c: 229: {;afficheur.c: 
      +                          230:     if (dccar<32)
  5652   0022C0  0E20               	movlw	32
  5653   0022C2  6028               	cpfslt	draw_char@dccar^0,c
  5654   0022C4  EF66  F011         	goto	i2u172_41
  5655   0022C8  EF68  F011         	goto	i2u172_40
  5656   0022CC                     i2u172_41:
  5657   0022CC  EF6A  F011         	goto	i2l4027
  5658   0022D0                     i2u172_40:
  5659   0022D0                     
  5660                           ;afficheur.c: 231:     {;afficheur.c: 232:         dccar=0x3F;
  5661   0022D0  0E3F               	movlw	63
  5662   0022D2  6E28               	movwf	draw_char@dccar^0,c
  5663   0022D4                     i2l4027:
  5664                           
  5665                           ;afficheur.c: 234:     if (dccar>0x9F)
  5666   0022D4  0E9F               	movlw	159
  5667   0022D6  6428               	cpfsgt	draw_char@dccar^0,c
  5668   0022D8  EF70  F011         	goto	i2u173_41
  5669   0022DC  EF72  F011         	goto	i2u173_40
  5670   0022E0                     i2u173_41:
  5671   0022E0  EF74  F011         	goto	i2l4031
  5672   0022E4                     i2u173_40:
  5673   0022E4                     
  5674                           ;afficheur.c: 235:     {;afficheur.c: 236:         dccar=0x3F;
  5675   0022E4  0E3F               	movlw	63
  5676   0022E6  6E28               	movwf	draw_char@dccar^0,c
  5677   0022E8                     i2l4031:
  5678                           
  5679                           ;afficheur.c: 238:     dccar=dccar-32;
  5680   0022E8  5028               	movf	draw_char@dccar^0,w,c
  5681   0022EA  0FE0               	addlw	224
  5682   0022EC  6E28               	movwf	draw_char@dccar^0,c
  5683                           
  5684                           ;afficheur.c: 239:     while(d1command(dccar,0xC0)==0) __nop();
  5685   0022EE  EF7A  F011         	goto	i2l4033
  5686   0022F2                     i2l1236:
  5687   0022F2  0000               	nop	
  5688   0022F4                     i2l4033:
  5689   0022F4  0EC0               	movlw	192
  5690   0022F6  6E25               	movwf	d1command@cmd^0,c
  5691   0022F8  5028               	movf	draw_char@dccar^0,w,c
  5692   0022FA  EC88  F011         	call	_d1command
  5693   0022FE  0900               	iorlw	0
  5694   002300  B4D8               	btfsc	status,2,c
  5695   002302  EF85  F011         	goto	i2u174_41
  5696   002306  EF87  F011         	goto	i2u174_40
  5697   00230A                     i2u174_41:
  5698   00230A  EF79  F011         	goto	i2l1236
  5699   00230E                     i2u174_40:
  5700   00230E  0012               	return		;funcret
  5701   002310                     __end_of_draw_char:
  5702                           	callstack 0
  5703                           
  5704 ;; *************** function _clear_text *****************
  5705 ;; Defined at:
  5706 ;;		line 307 in file "afficheur.c"
  5707 ;; Parameters:    Size  Location     Type
  5708 ;;		None
  5709 ;; Auto vars:     Size  Location     Type
  5710 ;;  add             2    8[COMRAM] unsigned int 
  5711 ;; Return value:  Size  Location     Type
  5712 ;;                  1    wreg      void 
  5713 ;; Registers used:
  5714 ;;		wreg, status,2, status,0, cstack
  5715 ;; Tracked objects:
  5716 ;;		On entry : 0/0
  5717 ;;		On exit  : 0/0
  5718 ;;		Unchanged: 0/0
  5719 ;; Data sizes:     COMRAM   BANK0   BANK1   BANK2   BANK3   BANK4   BANK5   BANK6   BANK7   BANK8   BANK9  BANK10  BANK1
      +1  BANK12  BANK13  BANK14  BANK15
  5720 ;;      Params:         0       0       0       0       0       0       0       0       0       0       0       0       
      +0       0       0       0       0
  5721 ;;      Locals:         2       0       0       0       0       0       0       0       0       0       0       0       
      +0       0       0       0       0
  5722 ;;      Temps:          0       0       0       0       0       0       0       0       0       0       0       0       
      +0       0       0       0       0
  5723 ;;      Totals:         2       0       0       0       0       0       0       0       0       0       0       0       
      +0       0       0       0       0
  5724 ;;Total ram usage:        2 bytes
  5725 ;; Hardware stack levels used: 1
  5726 ;; Hardware stack levels required when called: 3
  5727 ;; This function calls:
  5728 ;;		_d1command
  5729 ;;		_d2command
  5730 ;; This function is called by:
  5731 ;;		_tache1
  5732 ;; This function uses a non-reentrant model
  5733 ;;
  5734                           
  5735                           	psect	text28
  5736   0024AE                     __ptext28:
  5737                           	callstack 0
  5738   0024AE                     _clear_text:
  5739                           	callstack 24
  5740   0024AE                     
  5741                           ;afficheur.c: 309:     unsigned int add;;afficheur.c: 311:     d2command(0,0,0x24);
  5742   0024AE  0E00               	movlw	0
  5743   0024B0  6E25               	movwf	d2command@d2^0,c
  5744   0024B2  0E24               	movlw	36
  5745   0024B4  6E26               	movwf	d2command@cmd^0,c
  5746   0024B6  0E00               	movlw	0
  5747   0024B8  EC28  F011         	call	_d2command
  5748   0024BC                     
  5749                           ;afficheur.c: 312:     for (add=0;add!=0x8000;add++)
  5750   0024BC  0E00               	movlw	0
  5751   0024BE  6E2A               	movwf	(clear_text@add+1)^0,c
  5752   0024C0  0E00               	movlw	0
  5753   0024C2  6E29               	movwf	clear_text@add^0,c
  5754   0024C4                     i2l3989:
  5755                           
  5756                           ;afficheur.c: 313:     {;afficheur.c: 314:             d1command(0x00,0xC0);
  5757   0024C4  0EC0               	movlw	192
  5758   0024C6  6E25               	movwf	d1command@cmd^0,c
  5759   0024C8  0E00               	movlw	0
  5760   0024CA  EC88  F011         	call	_d1command
  5761   0024CE                     
  5762                           ;afficheur.c: 315:     }
  5763   0024CE  4A29               	infsnz	clear_text@add^0,f,c
  5764   0024D0  2A2A               	incf	(clear_text@add+1)^0,f,c
  5765   0024D2  0E80               	movlw	128
  5766   0024D4  182A               	xorwf	(clear_text@add+1)^0,w,c
  5767   0024D6  1029               	iorwf	clear_text@add^0,w,c
  5768   0024D8  A4D8               	btfss	status,2,c
  5769   0024DA  EF71  F012         	goto	i2u167_41
  5770   0024DE  EF73  F012         	goto	i2u167_40
  5771   0024E2                     i2u167_41:
  5772   0024E2  EF62  F012         	goto	i2l3989
  5773   0024E6                     i2u167_40:
  5774   0024E6  0012               	return		;funcret
  5775   0024E8                     __end_of_clear_text:
  5776                           	callstack 0
  5777                           
  5778 ;; *************** function _clear_graphics *****************
  5779 ;; Defined at:
  5780 ;;		line 318 in file "afficheur.c"
  5781 ;; Parameters:    Size  Location     Type
  5782 ;;		None
  5783 ;; Auto vars:     Size  Location     Type
  5784 ;;  add             2    8[COMRAM] unsigned int 
  5785 ;; Return value:  Size  Location     Type
  5786 ;;                  1    wreg      void 
  5787 ;; Registers used:
  5788 ;;		wreg, status,2, status,0, cstack
  5789 ;; Tracked objects:
  5790 ;;		On entry : 0/0
  5791 ;;		On exit  : 0/0
  5792 ;;		Unchanged: 0/0
  5793 ;; Data sizes:     COMRAM   BANK0   BANK1   BANK2   BANK3   BANK4   BANK5   BANK6   BANK7   BANK8   BANK9  BANK10  BANK1
      +1  BANK12  BANK13  BANK14  BANK15
  5794 ;;      Params:         0       0       0       0       0       0       0       0       0       0       0       0       
      +0       0       0       0       0
  5795 ;;      Locals:         2       0       0       0       0       0       0       0       0       0       0       0       
      +0       0       0       0       0
  5796 ;;      Temps:          0       0       0       0       0       0       0       0       0       0       0       0       
      +0       0       0       0       0
  5797 ;;      Totals:         2       0       0       0       0       0       0       0       0       0       0       0       
      +0       0       0       0       0
  5798 ;;Total ram usage:        2 bytes
  5799 ;; Hardware stack levels used: 1
  5800 ;; Hardware stack levels required when called: 3
  5801 ;; This function calls:
  5802 ;;		_d1command
  5803 ;;		_d2command
  5804 ;; This function is called by:
  5805 ;;		_tache1
  5806 ;; This function uses a non-reentrant model
  5807 ;;
  5808                           
  5809                           	psect	text29
  5810   0024E8                     __ptext29:
  5811                           	callstack 0
  5812   0024E8                     _clear_graphics:
  5813                           	callstack 24
  5814   0024E8                     
  5815                           ;afficheur.c: 320:     unsigned int add;;afficheur.c: 322:     d2command(0,0x80,0x24);
  5816   0024E8  0E80               	movlw	128
  5817   0024EA  6E25               	movwf	d2command@d2^0,c
  5818   0024EC  0E24               	movlw	36
  5819   0024EE  6E26               	movwf	d2command@cmd^0,c
  5820   0024F0  0E00               	movlw	0
  5821   0024F2  EC28  F011         	call	_d2command
  5822   0024F6                     
  5823                           ;afficheur.c: 323:     for (add=0x8000;add!=0xF800;add++)
  5824   0024F6  0E80               	movlw	128
  5825   0024F8  6E2A               	movwf	(clear_graphics@add+1)^0,c
  5826   0024FA  0E00               	movlw	0
  5827   0024FC  6E29               	movwf	clear_graphics@add^0,c
  5828   0024FE                     i2l4003:
  5829                           
  5830                           ;afficheur.c: 324:     {;afficheur.c: 325:             d1command(0x00,0xC0);
  5831   0024FE  0EC0               	movlw	192
  5832   002500  6E25               	movwf	d1command@cmd^0,c
  5833   002502  0E00               	movlw	0
  5834   002504  EC88  F011         	call	_d1command
  5835   002508                     
  5836                           ;afficheur.c: 326:     }
  5837   002508  4A29               	infsnz	clear_graphics@add^0,f,c
  5838   00250A  2A2A               	incf	(clear_graphics@add+1)^0,f,c
  5839   00250C  0EF8               	movlw	248
  5840   00250E  182A               	xorwf	(clear_graphics@add+1)^0,w,c
  5841   002510  1029               	iorwf	clear_graphics@add^0,w,c
  5842   002512  A4D8               	btfss	status,2,c
  5843   002514  EF8E  F012         	goto	i2u168_41
  5844   002518  EF90  F012         	goto	i2u168_40
  5845   00251C                     i2u168_41:
  5846   00251C  EF7F  F012         	goto	i2l4003
  5847   002520                     i2u168_40:
  5848   002520  0012               	return		;funcret
  5849   002522                     __end_of_clear_graphics:
  5850                           	callstack 0
  5851                           
  5852 ;; *************** function _d2command *****************
  5853 ;; Defined at:
  5854 ;;		line 128 in file "afficheur.c"
  5855 ;; Parameters:    Size  Location     Type
  5856 ;;  d1              1    wreg     unsigned char 
  5857 ;;  d2              1    4[COMRAM] unsigned char 
  5858 ;;  cmd             1    5[COMRAM] unsigned char 
  5859 ;; Auto vars:     Size  Location     Type
  5860 ;;  d1              1    6[COMRAM] unsigned char 
  5861 ;;  res             1    7[COMRAM] unsigned char 
  5862 ;; Return value:  Size  Location     Type
  5863 ;;                  1    wreg      unsigned char 
  5864 ;; Registers used:
  5865 ;;		wreg, status,2, status,0, cstack
  5866 ;; Tracked objects:
  5867 ;;		On entry : 0/0
  5868 ;;		On exit  : 0/0
  5869 ;;		Unchanged: 0/0
  5870 ;; Data sizes:     COMRAM   BANK0   BANK1   BANK2   BANK3   BANK4   BANK5   BANK6   BANK7   BANK8   BANK9  BANK10  BANK1
      +1  BANK12  BANK13  BANK14  BANK15
  5871 ;;      Params:         2       0       0       0       0       0       0       0       0       0       0       0       
      +0       0       0       0       0
  5872 ;;      Locals:         2       0       0       0       0       0       0       0       0       0       0       0       
      +0       0       0       0       0
  5873 ;;      Temps:          0       0       0       0       0       0       0       0       0       0       0       0       
      +0       0       0       0       0
  5874 ;;      Totals:         4       0       0       0       0       0       0       0       0       0       0       0       
      +0       0       0       0       0
  5875 ;;Total ram usage:        4 bytes
  5876 ;; Hardware stack levels used: 1
  5877 ;; Hardware stack levels required when called: 2
  5878 ;; This function calls:
  5879 ;;		_delai_us_char
  5880 ;;		_wait_status_ok
  5881 ;;		_write_c_aff
  5882 ;;		_write_d_aff
  5883 ;; This function is called by:
  5884 ;;		_initialisation_afficheur
  5885 ;;		_goto_lico
  5886 ;;		_clear_text
  5887 ;;		_clear_graphics
  5888 ;;		_plot1
  5889 ;;		_clear_cgram
  5890 ;;		_plot0
  5891 ;; This function uses a non-reentrant model
  5892 ;;
  5893                           
  5894                           	psect	text30
  5895   002250                     __ptext30:
  5896                           	callstack 0
  5897   002250                     _d2command:
  5898                           	callstack 24
  5899                           
  5900                           ;incstack = 0
  5901                           ;d2command@d1 stored from wreg
  5902   002250  6E27               	movwf	d2command@d1^0,c
  5903   002252                     
  5904                           ;afficheur.c: 128: unsigned char d2command(unsigned char d1, unsigned char d2, unsigned 
      +                          char cmd);afficheur.c: 129: {;afficheur.c: 130:     unsigned char res;;afficheur.c: 132:
      +                               res=0;
  5905   002252  0E00               	movlw	0
  5906   002254  6E28               	movwf	d2command@res^0,c
  5907   002256                     
  5908                           ;afficheur.c: 134:     if (wait_status_ok()==1)
  5909   002256  EC78  F010         	call	_wait_status_ok	;wreg free
  5910   00225A  06E8               	decf	wreg,f,c
  5911   00225C  A4D8               	btfss	status,2,c
  5912   00225E  EF33  F011         	goto	i2u149_41
  5913   002262  EF35  F011         	goto	i2u149_40
  5914   002266                     i2u149_41:
  5915   002266  EF5D  F011         	goto	i2l3863
  5916   00226A                     i2u149_40:
  5917   00226A                     
  5918                           ;afficheur.c: 135:     {;afficheur.c: 136:         delai_us_char(12);
  5919   00226A  0E0C               	movlw	12
  5920   00226C  ECAD  F012         	call	_delai_us_char
  5921   002270                     
  5922                           ;afficheur.c: 137:         write_d_aff(d1);
  5923   002270  5027               	movf	d2command@d1^0,w,c
  5924   002272  EC2C  F013         	call	_write_d_aff
  5925   002276                     
  5926                           ;afficheur.c: 138:         if (wait_status_ok()==1)
  5927   002276  EC78  F010         	call	_wait_status_ok	;wreg free
  5928   00227A  06E8               	decf	wreg,f,c
  5929   00227C  A4D8               	btfss	status,2,c
  5930   00227E  EF43  F011         	goto	i2u150_41
  5931   002282  EF45  F011         	goto	i2u150_40
  5932   002286                     i2u150_41:
  5933   002286  EF5D  F011         	goto	i2l3863
  5934   00228A                     i2u150_40:
  5935   00228A                     
  5936                           ;afficheur.c: 139:         {;afficheur.c: 140:             delai_us_char(12);
  5937   00228A  0E0C               	movlw	12
  5938   00228C  ECAD  F012         	call	_delai_us_char
  5939   002290                     
  5940                           ;afficheur.c: 141:             write_d_aff(d2);
  5941   002290  5025               	movf	d2command@d2^0,w,c
  5942   002292  EC2C  F013         	call	_write_d_aff
  5943   002296                     
  5944                           ;afficheur.c: 142:             if (wait_status_ok()==1)
  5945   002296  EC78  F010         	call	_wait_status_ok	;wreg free
  5946   00229A  06E8               	decf	wreg,f,c
  5947   00229C  A4D8               	btfss	status,2,c
  5948   00229E  EF53  F011         	goto	i2u151_41
  5949   0022A2  EF55  F011         	goto	i2u151_40
  5950   0022A6                     i2u151_41:
  5951   0022A6  EF5D  F011         	goto	i2l3863
  5952   0022AA                     i2u151_40:
  5953   0022AA                     
  5954                           ;afficheur.c: 143:             {;afficheur.c: 144:                 delai_us_char(12);
  5955   0022AA  0E0C               	movlw	12
  5956   0022AC  ECAD  F012         	call	_delai_us_char
  5957   0022B0                     
  5958                           ;afficheur.c: 145:                 write_c_aff(cmd);
  5959   0022B0  5026               	movf	d2command@cmd^0,w,c
  5960   0022B2  EC39  F013         	call	_write_c_aff
  5961   0022B6                     
  5962                           ;afficheur.c: 147:                     res=1;
  5963   0022B6  0E01               	movlw	1
  5964   0022B8  6E28               	movwf	d2command@res^0,c
  5965   0022BA                     i2l3863:
  5966                           
  5967                           ;afficheur.c: 151:     return res;
  5968   0022BA  5028               	movf	d2command@res^0,w,c
  5969   0022BC  0012               	return		;funcret
  5970   0022BE                     __end_of_d2command:
  5971                           	callstack 0
  5972                           
  5973 ;; *************** function _d1command *****************
  5974 ;; Defined at:
  5975 ;;		line 106 in file "afficheur.c"
  5976 ;; Parameters:    Size  Location     Type
  5977 ;;  d1              1    wreg     unsigned char 
  5978 ;;  cmd             1    4[COMRAM] unsigned char 
  5979 ;; Auto vars:     Size  Location     Type
  5980 ;;  d1              1    5[COMRAM] unsigned char 
  5981 ;;  res             1    6[COMRAM] unsigned char 
  5982 ;; Return value:  Size  Location     Type
  5983 ;;                  1    wreg      unsigned char 
  5984 ;; Registers used:
  5985 ;;		wreg, status,2, status,0, cstack
  5986 ;; Tracked objects:
  5987 ;;		On entry : 0/0
  5988 ;;		On exit  : 0/0
  5989 ;;		Unchanged: 0/0
  5990 ;; Data sizes:     COMRAM   BANK0   BANK1   BANK2   BANK3   BANK4   BANK5   BANK6   BANK7   BANK8   BANK9  BANK10  BANK1
      +1  BANK12  BANK13  BANK14  BANK15
  5991 ;;      Params:         1       0       0       0       0       0       0       0       0       0       0       0       
      +0       0       0       0       0
  5992 ;;      Locals:         2       0       0       0       0       0       0       0       0       0       0       0       
      +0       0       0       0       0
  5993 ;;      Temps:          0       0       0       0       0       0       0       0       0       0       0       0       
      +0       0       0       0       0
  5994 ;;      Totals:         3       0       0       0       0       0       0       0       0       0       0       0       
      +0       0       0       0       0
  5995 ;;Total ram usage:        3 bytes
  5996 ;; Hardware stack levels used: 1
  5997 ;; Hardware stack levels required when called: 2
  5998 ;; This function calls:
  5999 ;;		_delai_us_char
  6000 ;;		_wait_status_ok
  6001 ;;		_write_c_aff
  6002 ;;		_write_d_aff
  6003 ;; This function is called by:
  6004 ;;		_initialisation_afficheur
  6005 ;;		_draw_char
  6006 ;;		_draw_string
  6007 ;;		_draw_hex8
  6008 ;;		_clear_text
  6009 ;;		_clear_graphics
  6010 ;;		_draw_dec8
  6011 ;;		_clear_cgram
  6012 ;; This function uses a non-reentrant model
  6013 ;;
  6014                           
  6015                           	psect	text31
  6016   002310                     __ptext31:
  6017                           	callstack 0
  6018   002310                     _d1command:
  6019                           	callstack 24
  6020                           
  6021                           ;incstack = 0
  6022                           ;d1command@d1 stored from wreg
  6023   002310  6E26               	movwf	d1command@d1^0,c
  6024   002312                     
  6025                           ;afficheur.c: 106: unsigned char d1command(unsigned char d1, unsigned char cmd);afficheu
      +                          r.c: 107: {;afficheur.c: 108:     unsigned char res;;afficheur.c: 110:     res=0;
  6026   002312  0E00               	movlw	0
  6027   002314  6E27               	movwf	d1command@res^0,c
  6028   002316                     
  6029                           ;afficheur.c: 112:     if (wait_status_ok()==1)
  6030   002316  EC78  F010         	call	_wait_status_ok	;wreg free
  6031   00231A  06E8               	decf	wreg,f,c
  6032   00231C  A4D8               	btfss	status,2,c
  6033   00231E  EF93  F011         	goto	i2u147_41
  6034   002322  EF95  F011         	goto	i2u147_40
  6035   002326                     i2u147_41:
  6036   002326  EFAD  F011         	goto	i2l3837
  6037   00232A                     i2u147_40:
  6038   00232A                     
  6039                           ;afficheur.c: 113:     {;afficheur.c: 114:         delai_us_char(12);
  6040   00232A  0E0C               	movlw	12
  6041   00232C  ECAD  F012         	call	_delai_us_char
  6042   002330                     
  6043                           ;afficheur.c: 115:         write_d_aff(d1);
  6044   002330  5026               	movf	d1command@d1^0,w,c
  6045   002332  EC2C  F013         	call	_write_d_aff
  6046   002336                     
  6047                           ;afficheur.c: 116:         if (wait_status_ok()==1)
  6048   002336  EC78  F010         	call	_wait_status_ok	;wreg free
  6049   00233A  06E8               	decf	wreg,f,c
  6050   00233C  A4D8               	btfss	status,2,c
  6051   00233E  EFA3  F011         	goto	i2u148_41
  6052   002342  EFA5  F011         	goto	i2u148_40
  6053   002346                     i2u148_41:
  6054   002346  EFAD  F011         	goto	i2l3837
  6055   00234A                     i2u148_40:
  6056   00234A                     
  6057                           ;afficheur.c: 117:         {;afficheur.c: 118:             delai_us_char(12);
  6058   00234A  0E0C               	movlw	12
  6059   00234C  ECAD  F012         	call	_delai_us_char
  6060   002350                     
  6061                           ;afficheur.c: 119:             write_c_aff(cmd);
  6062   002350  5025               	movf	d1command@cmd^0,w,c
  6063   002352  EC39  F013         	call	_write_c_aff
  6064   002356                     
  6065                           ;afficheur.c: 121:                 res=1;
  6066   002356  0E01               	movlw	1
  6067   002358  6E27               	movwf	d1command@res^0,c
  6068   00235A                     i2l3837:
  6069                           
  6070                           ;afficheur.c: 125:     return res;
  6071   00235A  5027               	movf	d1command@res^0,w,c
  6072   00235C  0012               	return		;funcret
  6073   00235E                     __end_of_d1command:
  6074                           	callstack 0
  6075                           
  6076 ;; *************** function _write_d_aff *****************
  6077 ;; Defined at:
  6078 ;;		line 4 in file "afficheur.c"
  6079 ;; Parameters:    Size  Location     Type
  6080 ;;  data            1    wreg     unsigned char 
  6081 ;; Auto vars:     Size  Location     Type
  6082 ;;  data            1    0[COMRAM] unsigned char 
  6083 ;; Return value:  Size  Location     Type
  6084 ;;                  1    wreg      void 
  6085 ;; Registers used:
  6086 ;;		wreg, status,2
  6087 ;; Tracked objects:
  6088 ;;		On entry : 0/0
  6089 ;;		On exit  : 0/0
  6090 ;;		Unchanged: 0/0
  6091 ;; Data sizes:     COMRAM   BANK0   BANK1   BANK2   BANK3   BANK4   BANK5   BANK6   BANK7   BANK8   BANK9  BANK10  BANK1
      +1  BANK12  BANK13  BANK14  BANK15
  6092 ;;      Params:         0       0       0       0       0       0       0       0       0       0       0       0       
      +0       0       0       0       0
  6093 ;;      Locals:         1       0       0       0       0       0       0       0       0       0       0       0       
      +0       0       0       0       0
  6094 ;;      Temps:          0       0       0       0       0       0       0       0       0       0       0       0       
      +0       0       0       0       0
  6095 ;;      Totals:         1       0       0       0       0       0       0       0       0       0       0       0       
      +0       0       0       0       0
  6096 ;;Total ram usage:        1 bytes
  6097 ;; Hardware stack levels used: 1
  6098 ;; This function calls:
  6099 ;;		Nothing
  6100 ;; This function is called by:
  6101 ;;		_d1command
  6102 ;;		_d2command
  6103 ;; This function uses a non-reentrant model
  6104 ;;
  6105                           
  6106                           	psect	text32
  6107   002658                     __ptext32:
  6108                           	callstack 0
  6109   002658                     _write_d_aff:
  6110                           	callstack 25
  6111                           
  6112                           ;incstack = 0
  6113                           ;write_d_aff@data stored from wreg
  6114   002658  6E21               	movwf	write_d_aff@data^0,c
  6115   00265A                     
  6116                           ;afficheur.c: 4: void write_d_aff(unsigned char data);afficheur.c: 5: {;afficheur.c: 6: 
      +                              LATH=data;
  6117   00265A  C021  FF90         	movff	write_d_aff@data,3984	;volatile
  6118   00265E                     
  6119                           ;afficheur.c: 7:     TRISH=0x00;
  6120   00265E  0E00               	movlw	0
  6121   002660  6E99               	movwf	153,c	;volatile
  6122   002662                     
  6123                           ;afficheur.c: 8:     LATJbits.LATJ0=0;
  6124   002662  9091               	bcf	145,0,c	;volatile
  6125   002664                     
  6126                           ;afficheur.c: 9:     LATJbits.LATJ3=0;
  6127   002664  9691               	bcf	145,3,c	;volatile
  6128   002666                     
  6129                           ;afficheur.c: 10:     LATJbits.LATJ2=0;
  6130   002666  9491               	bcf	145,2,c	;volatile
  6131   002668                     
  6132                           ;afficheur.c: 11:     __nop();
  6133   002668  0000               	nop	
  6134   00266A                     
  6135                           ;afficheur.c: 12:     __nop();
  6136   00266A  0000               	nop	
  6137   00266C                     
  6138                           ;afficheur.c: 13:     LATJbits.LATJ2=1;
  6139   00266C  8491               	bsf	145,2,c	;volatile
  6140   00266E                     
  6141                           ;afficheur.c: 14:     LATJbits.LATJ3=1;
  6142   00266E  8691               	bsf	145,3,c	;volatile
  6143   002670  0012               	return		;funcret
  6144   002672                     __end_of_write_d_aff:
  6145                           	callstack 0
  6146                           
  6147 ;; *************** function _write_c_aff *****************
  6148 ;; Defined at:
  6149 ;;		line 17 in file "afficheur.c"
  6150 ;; Parameters:    Size  Location     Type
  6151 ;;  command         1    wreg     unsigned char 
  6152 ;; Auto vars:     Size  Location     Type
  6153 ;;  command         1    0[COMRAM] unsigned char 
  6154 ;; Return value:  Size  Location     Type
  6155 ;;                  1    wreg      void 
  6156 ;; Registers used:
  6157 ;;		wreg, status,2
  6158 ;; Tracked objects:
  6159 ;;		On entry : 0/0
  6160 ;;		On exit  : 0/0
  6161 ;;		Unchanged: 0/0
  6162 ;; Data sizes:     COMRAM   BANK0   BANK1   BANK2   BANK3   BANK4   BANK5   BANK6   BANK7   BANK8   BANK9  BANK10  BANK1
      +1  BANK12  BANK13  BANK14  BANK15
  6163 ;;      Params:         0       0       0       0       0       0       0       0       0       0       0       0       
      +0       0       0       0       0
  6164 ;;      Locals:         1       0       0       0       0       0       0       0       0       0       0       0       
      +0       0       0       0       0
  6165 ;;      Temps:          0       0       0       0       0       0       0       0       0       0       0       0       
      +0       0       0       0       0
  6166 ;;      Totals:         1       0       0       0       0       0       0       0       0       0       0       0       
      +0       0       0       0       0
  6167 ;;Total ram usage:        1 bytes
  6168 ;; Hardware stack levels used: 1
  6169 ;; This function calls:
  6170 ;;		Nothing
  6171 ;; This function is called by:
  6172 ;;		_command
  6173 ;;		_d1command
  6174 ;;		_d2command
  6175 ;; This function uses a non-reentrant model
  6176 ;;
  6177                           
  6178                           	psect	text33
  6179   002672                     __ptext33:
  6180                           	callstack 0
  6181   002672                     _write_c_aff:
  6182                           	callstack 25
  6183                           
  6184                           ;incstack = 0
  6185                           ;write_c_aff@command stored from wreg
  6186   002672  6E21               	movwf	write_c_aff@command^0,c
  6187   002674                     
  6188                           ;afficheur.c: 17: void write_c_aff(unsigned char command);afficheur.c: 18: {;afficheur.c
      +                          : 19:     LATH=command;
  6189   002674  C021  FF90         	movff	write_c_aff@command,3984	;volatile
  6190   002678                     
  6191                           ;afficheur.c: 20:     TRISH=0x00;
  6192   002678  0E00               	movlw	0
  6193   00267A  6E99               	movwf	153,c	;volatile
  6194   00267C                     
  6195                           ;afficheur.c: 21:     LATJbits.LATJ0=1;
  6196   00267C  8091               	bsf	145,0,c	;volatile
  6197   00267E                     
  6198                           ;afficheur.c: 22:     LATJbits.LATJ3=0;
  6199   00267E  9691               	bcf	145,3,c	;volatile
  6200   002680                     
  6201                           ;afficheur.c: 23:     LATJbits.LATJ2=0;
  6202   002680  9491               	bcf	145,2,c	;volatile
  6203   002682                     
  6204                           ;afficheur.c: 24:     __nop();
  6205   002682  0000               	nop	
  6206   002684                     
  6207                           ;afficheur.c: 25:     __nop();
  6208   002684  0000               	nop	
  6209   002686                     
  6210                           ;afficheur.c: 26:     LATJbits.LATJ2=1;
  6211   002686  8491               	bsf	145,2,c	;volatile
  6212   002688                     
  6213                           ;afficheur.c: 27:     LATJbits.LATJ3=1;
  6214   002688  8691               	bsf	145,3,c	;volatile
  6215   00268A  0012               	return		;funcret
  6216   00268C                     __end_of_write_c_aff:
  6217                           	callstack 0
  6218                           
  6219 ;; *************** function _wait_status_ok *****************
  6220 ;; Defined at:
  6221 ;;		line 53 in file "afficheur.c"
  6222 ;; Parameters:    Size  Location     Type
  6223 ;;		None
  6224 ;; Auto vars:     Size  Location     Type
  6225 ;;  res             1    3[COMRAM] unsigned char 
  6226 ;;  status          1    2[COMRAM] unsigned char 
  6227 ;;  err             1    1[COMRAM] unsigned char 
  6228 ;; Return value:  Size  Location     Type
  6229 ;;                  1    wreg      unsigned char 
  6230 ;; Registers used:
  6231 ;;		wreg, status,2, status,0, cstack
  6232 ;; Tracked objects:
  6233 ;;		On entry : 0/0
  6234 ;;		On exit  : 0/0
  6235 ;;		Unchanged: 0/0
  6236 ;; Data sizes:     COMRAM   BANK0   BANK1   BANK2   BANK3   BANK4   BANK5   BANK6   BANK7   BANK8   BANK9  BANK10  BANK1
      +1  BANK12  BANK13  BANK14  BANK15
  6237 ;;      Params:         0       0       0       0       0       0       0       0       0       0       0       0       
      +0       0       0       0       0
  6238 ;;      Locals:         3       0       0       0       0       0       0       0       0       0       0       0       
      +0       0       0       0       0
  6239 ;;      Temps:          0       0       0       0       0       0       0       0       0       0       0       0       
      +0       0       0       0       0
  6240 ;;      Totals:         3       0       0       0       0       0       0       0       0       0       0       0       
      +0       0       0       0       0
  6241 ;;Total ram usage:        3 bytes
  6242 ;; Hardware stack levels used: 1
  6243 ;; Hardware stack levels required when called: 1
  6244 ;; This function calls:
  6245 ;;		_delai_us_char
  6246 ;; This function is called by:
  6247 ;;		_command
  6248 ;;		_d1command
  6249 ;;		_d2command
  6250 ;; This function uses a non-reentrant model
  6251 ;;
  6252                           
  6253                           	psect	text34
  6254   0020F0                     __ptext34:
  6255                           	callstack 0
  6256   0020F0                     _wait_status_ok:
  6257                           	callstack 24
  6258   0020F0                     
  6259                           ;afficheur.c: 55:     unsigned char err,res,status;;afficheur.c: 57:     err=0;
  6260   0020F0  0E00               	movlw	0
  6261   0020F2  6E22               	movwf	wait_status_ok@err^0,c
  6262                           
  6263                           ;afficheur.c: 58:     res=2;
  6264   0020F4  0E02               	movlw	2
  6265   0020F6  6E24               	movwf	wait_status_ok@res^0,c
  6266                           
  6267                           ;afficheur.c: 59:     while (res==2)
  6268   0020F8  EFA9  F010         	goto	i2l2375
  6269   0020FC                     i2l1194:
  6270                           
  6271                           ;afficheur.c: 60:     {;afficheur.c: 61:         TRISH=0xFF;
  6272   0020FC  6899               	setf	153,c	;volatile
  6273                           
  6274                           ;afficheur.c: 62:         LATJbits.LATJ0=1;
  6275   0020FE  8091               	bsf	145,0,c	;volatile
  6276                           
  6277                           ;afficheur.c: 63:         LATJbits.LATJ3=0;
  6278   002100  9691               	bcf	145,3,c	;volatile
  6279                           
  6280                           ;afficheur.c: 64:         LATJbits.LATJ1=0;
  6281   002102  9291               	bcf	145,1,c	;volatile
  6282                           
  6283                           ;afficheur.c: 65:         __nop();
  6284   002104  0000               	nop	
  6285                           
  6286                           ;afficheur.c: 66:         status=PORTH;
  6287   002106  CF87 F023          	movff	3975,wait_status_ok@status	;volatile
  6288                           
  6289                           ;afficheur.c: 67:         LATJbits.LATJ1=1;
  6290   00210A  8291               	bsf	145,1,c	;volatile
  6291                           
  6292                           ;afficheur.c: 68:         LATJbits.LATJ3=1;
  6293   00210C  8691               	bsf	145,3,c	;volatile
  6294   00210E                     
  6295                           ;afficheur.c: 70:         status=(status&0x03);
  6296   00210E  5023               	movf	wait_status_ok@status^0,w,c
  6297   002110  0B03               	andlw	3
  6298   002112  6E23               	movwf	wait_status_ok@status^0,c
  6299                           
  6300                           ;afficheur.c: 71:         if (status!=0x03)
  6301   002114  0E03               	movlw	3
  6302   002116  1823               	xorwf	wait_status_ok@status^0,w,c
  6303   002118  B4D8               	btfsc	status,2,c
  6304   00211A  EF91  F010         	goto	i2u2_41
  6305   00211E  EF93  F010         	goto	i2u2_40
  6306   002122                     i2u2_41:
  6307   002122  EFA7  F010         	goto	i2l2373
  6308   002126                     i2u2_40:
  6309   002126                     
  6310                           ;afficheur.c: 72:         {;afficheur.c: 73:             err++;
  6311   002126  2A22               	incf	wait_status_ok@err^0,f,c
  6312   002128                     
  6313                           ;afficheur.c: 74:             delai_us_char(12);
  6314   002128  0E0C               	movlw	12
  6315   00212A  ECAD  F012         	call	_delai_us_char
  6316   00212E                     
  6317                           ;afficheur.c: 75:             if (err>=250)
  6318   00212E  0EF9               	movlw	249
  6319   002130  6422               	cpfsgt	wait_status_ok@err^0,c
  6320   002132  EF9D  F010         	goto	i2u3_41
  6321   002136  EF9F  F010         	goto	i2u3_40
  6322   00213A                     i2u3_41:
  6323   00213A  EFA9  F010         	goto	i2l2375
  6324   00213E                     i2u3_40:
  6325   00213E                     
  6326                           ;afficheur.c: 76:             {;afficheur.c: 77:                 (INTCONbits.GIE = 0);
  6327   00213E  9EF2               	bcf	242,7,c	;volatile
  6328                           
  6329                           ;afficheur.c: 78:                 LATCbits.LATC2=0;LATCbits.LATC1=1;LATGbits.LATG0=1;
  6330   002140  948B               	bcf	139,2,c	;volatile
  6331   002142  828B               	bsf	139,1,c	;volatile
  6332   002144  808F               	bsf	143,0,c	;volatile
  6333   002146                     
  6334                           ;afficheur.c: 79:                 res=0;
  6335   002146  0E00               	movlw	0
  6336   002148  6E24               	movwf	wait_status_ok@res^0,c
  6337   00214A  EFA9  F010         	goto	i2l2375
  6338   00214E                     i2l2373:
  6339                           
  6340                           ;afficheur.c: 83:         {;afficheur.c: 84:             res=1;
  6341   00214E  0E01               	movlw	1
  6342   002150  6E24               	movwf	wait_status_ok@res^0,c
  6343   002152                     i2l2375:
  6344                           
  6345                           ;afficheur.c: 59:     while (res==2)
  6346   002152  0E02               	movlw	2
  6347   002154  1824               	xorwf	wait_status_ok@res^0,w,c
  6348   002156  B4D8               	btfsc	status,2,c
  6349   002158  EFB0  F010         	goto	i2u4_41
  6350   00215C  EFB2  F010         	goto	i2u4_40
  6351   002160                     i2u4_41:
  6352   002160  EF7E  F010         	goto	i2l1194
  6353   002164                     i2u4_40:
  6354   002164                     
  6355                           ;afficheur.c: 87:     return res;
  6356   002164  5024               	movf	wait_status_ok@res^0,w,c
  6357   002166  0012               	return		;funcret
  6358   002168                     __end_of_wait_status_ok:
  6359                           	callstack 0
  6360                           
  6361 ;; *************** function _delai_us_char *****************
  6362 ;; Defined at:
  6363 ;;		line 154 in file "afficheur.c"
  6364 ;; Parameters:    Size  Location     Type
  6365 ;;  ucdelai         1    wreg     unsigned char 
  6366 ;; Auto vars:     Size  Location     Type
  6367 ;;  ucdelai         1    0[COMRAM] unsigned char 
  6368 ;; Return value:  Size  Location     Type
  6369 ;;                  1    wreg      void 
  6370 ;; Registers used:
  6371 ;;		wreg, status,2, status,0
  6372 ;; Tracked objects:
  6373 ;;		On entry : 0/0
  6374 ;;		On exit  : 0/0
  6375 ;;		Unchanged: 0/0
  6376 ;; Data sizes:     COMRAM   BANK0   BANK1   BANK2   BANK3   BANK4   BANK5   BANK6   BANK7   BANK8   BANK9  BANK10  BANK1
      +1  BANK12  BANK13  BANK14  BANK15
  6377 ;;      Params:         0       0       0       0       0       0       0       0       0       0       0       0       
      +0       0       0       0       0
  6378 ;;      Locals:         1       0       0       0       0       0       0       0       0       0       0       0       
      +0       0       0       0       0
  6379 ;;      Temps:          0       0       0       0       0       0       0       0       0       0       0       0       
      +0       0       0       0       0
  6380 ;;      Totals:         1       0       0       0       0       0       0       0       0       0       0       0       
      +0       0       0       0       0
  6381 ;;Total ram usage:        1 bytes
  6382 ;; Hardware stack levels used: 1
  6383 ;; This function calls:
  6384 ;;		Nothing
  6385 ;; This function is called by:
  6386 ;;		_wait_status_ok
  6387 ;;		_command
  6388 ;;		_d1command
  6389 ;;		_d2command
  6390 ;;		_initialisation_afficheur
  6391 ;; This function uses a non-reentrant model
  6392 ;;
  6393                           
  6394                           	psect	text35
  6395   00255A                     __ptext35:
  6396                           	callstack 0
  6397   00255A                     _delai_us_char:
  6398                           	callstack 24
  6399                           
  6400                           ;incstack = 0
  6401                           ;delai_us_char@ucdelai stored from wreg
  6402   00255A  6E21               	movwf	delai_us_char@ucdelai^0,c
  6403   00255C                     
  6404                           ;afficheur.c: 154: void delai_us_char(unsigned char ucdelai);afficheur.c: 155: {;affiche
      +                          ur.c: 157:     while (ucdelai>0)
  6405   00255C  EFBB  F012         	goto	i2l2321
  6406   002560                     i2l1218:
  6407                           
  6408                           ;afficheur.c: 158:     {;afficheur.c: 159:         __nop();__nop();__nop();__nop();__nop
      +                          ();__nop();__nop();__nop();__nop();__nop();
  6409   002560  0000               	nop	
  6410   002562  0000               	nop	
  6411   002564  0000               	nop	
  6412   002566  0000               	nop	
  6413   002568  0000               	nop	
  6414   00256A  0000               	nop	
  6415   00256C  0000               	nop	
  6416   00256E  0000               	nop	
  6417   002570  0000               	nop	
  6418   002572  0000               	nop	
  6419   002574                     
  6420                           ;afficheur.c: 160:         ucdelai--;
  6421   002574  0621               	decf	delai_us_char@ucdelai^0,f,c
  6422   002576                     i2l2321:
  6423                           
  6424                           ;afficheur.c: 157:     while (ucdelai>0)
  6425   002576  5021               	movf	delai_us_char@ucdelai^0,w,c
  6426   002578  A4D8               	btfss	status,2,c
  6427   00257A  EFC1  F012         	goto	i2u1_41
  6428   00257E  EFC3  F012         	goto	i2u1_40
  6429   002582                     i2u1_41:
  6430   002582  EFB0  F012         	goto	i2l1218
  6431   002586                     i2u1_40:
  6432   002586  0012               	return		;funcret
  6433   002588                     __end_of_delai_us_char:
  6434                           	callstack 0
  6435                           
  6436                           	psect	text36
  6437   000000                     __ptext36:
  6438                           	callstack 0
  6439   000000                     
  6440                           	psect	rparam
  6441   000000                     
  6442                           	psect	temp
  6443   000001                     btemp:
  6444                           	callstack 0
  6445   000001                     	ds	32
  6446   000000                     wtemp0	set	btemp
  6447   000000                     wtemp1	set	btemp+2
  6448   000000                     wtemp2	set	btemp+4
  6449   000000                     wtemp3	set	btemp+6
  6450   000000                     wtemp4	set	btemp+8
  6451   000000                     wtemp5	set	btemp+10
  6452   000000                     wtemp8	set	btemp+1
  6453   000000                     ttemp0	set	btemp
  6454   000000                     ttemp1	set	btemp+3
  6455   000000                     ttemp2	set	btemp+6
  6456   000000                     ttemp3	set	btemp+9
  6457   000000                     ttemp5	set	btemp+1
  6458   000000                     ttemp6	set	btemp+4
  6459   000000                     ttemp7	set	btemp+8
  6460   000000                     ltemp0	set	btemp
  6461   000000                     ltemp1	set	btemp+4
  6462   000000                     ltemp2	set	btemp+8
  6463   000000                     lltemp0	set	btemp
  6464   000000                     lltemp1	set	btemp+8
  6465   000000                     lltemp2	set	btemp+16
  6466   000000                     lltemp3	set	btemp+24
  6467                           
  6468                           	psect	idloc
  6469                           
  6470                           ;Config register IDLOC0 @ 0x200000
  6471                           ;	unspecified, using default values
  6472   200000                     	org	2097152
  6473   200000  FF                 	db	255
  6474                           
  6475                           ;Config register IDLOC1 @ 0x200001
  6476                           ;	unspecified, using default values
  6477   200001                     	org	2097153
  6478   200001  FF                 	db	255
  6479                           
  6480                           ;Config register IDLOC2 @ 0x200002
  6481                           ;	unspecified, using default values
  6482   200002                     	org	2097154
  6483   200002  FF                 	db	255
  6484                           
  6485                           ;Config register IDLOC3 @ 0x200003
  6486                           ;	unspecified, using default values
  6487   200003                     	org	2097155
  6488   200003  FF                 	db	255
  6489                           
  6490                           ;Config register IDLOC4 @ 0x200004
  6491                           ;	unspecified, using default values
  6492   200004                     	org	2097156
  6493   200004  FF                 	db	255
  6494                           
  6495                           ;Config register IDLOC5 @ 0x200005
  6496                           ;	unspecified, using default values
  6497   200005                     	org	2097157
  6498   200005  FF                 	db	255
  6499                           
  6500                           ;Config register IDLOC6 @ 0x200006
  6501                           ;	unspecified, using default values
  6502   200006                     	org	2097158
  6503   200006  FF                 	db	255
  6504                           
  6505                           ;Config register IDLOC7 @ 0x200007
  6506                           ;	unspecified, using default values
  6507   200007                     	org	2097159
  6508   200007  FF                 	db	255
  6509                           
  6510                           	psect	config
  6511                           
  6512                           ;Config register CONFIG1L @ 0x300000
  6513                           ;	VREG Sleep Enable bit
  6514                           ;	RETEN = ON, Enabled
  6515                           ;	LF-INTOSC Low-power Enable bit
  6516                           ;	INTOSCSEL = HIGH, LF-INTOSC in High-power mode during Sleep
  6517                           ;	SOSC Power Selection and mode Configuration bits
  6518                           ;	SOSCSEL = DIG, Digital (SCLKI) mode
  6519                           ;	Extended Instruction Set
  6520                           ;	XINST = OFF, Disabled
  6521   300000                     	org	3145728
  6522   300000  15                 	db	21
  6523                           
  6524                           ;Config register CONFIG1H @ 0x300001
  6525                           ;	Oscillator
  6526                           ;	FOSC = HS1, HS oscillator (Medium power, 4 MHz - 16 MHz)
  6527                           ;	PLL x4 Enable bit
  6528                           ;	PLLCFG = ON, Enabled
  6529                           ;	Fail-Safe Clock Monitor
  6530                           ;	FCMEN = OFF, Disabled
  6531                           ;	Internal External Oscillator Switch Over Mode
  6532                           ;	IESO = OFF, Disabled
  6533   300001                     	org	3145729
  6534   300001  13                 	db	19
  6535                           
  6536                           ;Config register CONFIG2L @ 0x300002
  6537                           ;	Power Up Timer
  6538                           ;	PWRTEN = OFF, Disabled
  6539                           ;	Brown Out Detect
  6540                           ;	BOREN = OFF, Disabled in hardware, SBOREN disabled
  6541                           ;	Brown-out Reset Voltage bits
  6542                           ;	BORV = 0, 3.0V
  6543                           ;	BORMV Power level
  6544                           ;	BORPWR = ZPBORMV, ZPBORMV instead of BORMV is selected
  6545   300002                     	org	3145730
  6546   300002  61                 	db	97
  6547                           
  6548                           ;Config register CONFIG2H @ 0x300003
  6549                           ;	Watchdog Timer
  6550                           ;	WDTEN = OFF, WDT disabled in hardware; SWDTEN bit disabled
  6551                           ;	Watchdog Postscaler
  6552                           ;	WDTPS = 1, 1:1
  6553   300003                     	org	3145731
  6554   300003  00                 	db	0
  6555                           
  6556                           ;Config register CONFIG3L @ 0x300004
  6557                           ;	RTCC Clock Select
  6558                           ;	RTCOSC = INTOSCREF, RTCC uses INTRC
  6559                           ;	External Address Shift bit
  6560                           ;	EASHFT = OFF, Address Shifting disabled
  6561                           ;	Address Bus Width Select bits
  6562                           ;	ABW = MM, 8-bit address bus
  6563                           ;	Data Bus Width
  6564                           ;	BW = 8, 8-bit external bus mode
  6565                           ;	External Bus Wait
  6566                           ;	WAIT = ON, Enabled
  6567   300004                     	org	3145732
  6568   300004  30                 	db	48
  6569                           
  6570                           ;Config register CONFIG3H @ 0x300005
  6571                           ;	CCP2 Mux
  6572                           ;	CCP2MX = PORTBE, RE7-Microcontroller Mode/RB3-All other modes
  6573                           ;	ECCP Mux
  6574                           ;	ECCPMX = PORTH, Enhanced CCP1/3 [P1B/P1C/P3B/P3C] muxed with RH7/RH6/RH5/RH4
  6575                           ;	MSSP address masking
  6576                           ;	MSSPMSK = MSK5, 5 bit address masking mode
  6577                           ;	Master Clear Enable
  6578                           ;	MCLRE = ON, MCLR Enabled, RG5 Disabled
  6579   300005                     	org	3145733
  6580   300005  80                 	db	128
  6581                           
  6582                           ;Config register CONFIG4L @ 0x300006
  6583                           ;	Stack Overflow Reset
  6584                           ;	STVREN = ON, Enabled
  6585                           ;	Boot Block Size
  6586                           ;	BBSIZ = BB1K, 1K word Boot Block size
  6587                           ;	Background Debug
  6588                           ;	DEBUG = OFF, Disabled
  6589   300006                     	org	3145734
  6590   300006  81                 	db	129
  6591                           
  6592                           ; Padding undefined space
  6593   300007                     	org	3145735
  6594   300007  FF                 	db	255
  6595                           
  6596                           ;Config register CONFIG5L @ 0x300008
  6597                           ;	Code Protect 00800-03FFF
  6598                           ;	CP0 = OFF, Disabled
  6599                           ;	Code Protect 04000-07FFF
  6600                           ;	CP1 = OFF, Disabled
  6601                           ;	Code Protect 08000-0BFFF
  6602                           ;	CP2 = OFF, Disabled
  6603                           ;	Code Protect 0C000-0FFFF
  6604                           ;	CP3 = OFF, Disabled
  6605                           ;	Code Protect 10000-13FFF
  6606                           ;	CP4 = OFF, Disabled
  6607                           ;	Code Protect 14000-17FFF
  6608                           ;	CP5 = OFF, Disabled
  6609                           ;	Code Protect 18000-1BFFF
  6610                           ;	CP6 = OFF, Disabled
  6611                           ;	Code Protect 1C000-1FFFF
  6612                           ;	CP7 = OFF, Disabled
  6613   300008                     	org	3145736
  6614   300008  FF                 	db	255
  6615                           
  6616                           ;Config register CONFIG5H @ 0x300009
  6617                           ;	Code Protect Boot
  6618                           ;	CPB = OFF, Disabled
  6619                           ;	Data EE Read Protect
  6620                           ;	CPD = OFF, Disabled
  6621   300009                     	org	3145737
  6622   300009  C0                 	db	192
  6623                           
  6624                           ;Config register CONFIG6L @ 0x30000A
  6625                           ;	Table Write Protect 00800-03FFF
  6626                           ;	WRT0 = OFF, Disabled
  6627                           ;	Table Write Protect 04000-07FFF
  6628                           ;	WRT1 = OFF, Disabled
  6629                           ;	Table Write Protect 08000-0BFFF
  6630                           ;	WRT2 = OFF, Disabled
  6631                           ;	Table Write Protect 0C000-0FFFF
  6632                           ;	WRT3 = OFF, Disabled
  6633                           ;	Table Write Protect 10000-13FFF
  6634                           ;	WRT4 = OFF, Disabled
  6635                           ;	Table Write Protect 14000-17FFF
  6636                           ;	WRT5 = OFF, Disabled
  6637                           ;	Table Write Protect 18000-1BFFF
  6638                           ;	WRT6 = OFF, Disabled
  6639                           ;	Table Write Protect 1C000-1FFFF
  6640                           ;	WRT7 = OFF, Disabled
  6641   30000A                     	org	3145738
  6642   30000A  FF                 	db	255
  6643                           
  6644                           ;Config register CONFIG6H @ 0x30000B
  6645                           ;	Config. Write Protect
  6646                           ;	WRTC = OFF, Disabled
  6647                           ;	Table Write Protect Boot
  6648                           ;	WRTB = OFF, Disabled
  6649                           ;	Data EE Write Protect
  6650                           ;	WRTD = OFF, Disabled
  6651   30000B                     	org	3145739
  6652   30000B  E0                 	db	224
  6653                           
  6654                           ;Config register CONFIG7L @ 0x30000C
  6655                           ;	Table Read Protect 00800-03FFF
  6656                           ;	EBRT0 = OFF, Disabled
  6657                           ;	Table Read Protect 04000-07FFF
  6658                           ;	EBRT1 = OFF, Disabled
  6659                           ;	Table Read Protect 08000-0BFFF
  6660                           ;	EBRT2 = OFF, Disabled
  6661                           ;	Table Read Protect 0C000-0FFFF
  6662                           ;	EBRT3 = OFF, Disabled
  6663                           ;	Table Read Protect 10000-13FFF
  6664                           ;	EBRT4 = OFF, Disabled
  6665                           ;	Table Read Protect 14000-17FFF
  6666                           ;	EBRT5 = OFF, Disabled
  6667                           ;	Table Read Protect 18000-1BFFF
  6668                           ;	EBRT6 = OFF, Disabled
  6669                           ;	Table Read Protect 1C000-1FFFF
  6670                           ;	EBRT7 = OFF, Disabled
  6671   30000C                     	org	3145740
  6672   30000C  FF                 	db	255
  6673                           
  6674                           ;Config register CONFIG7H @ 0x30000D
  6675                           ;	Table Read Protect Boot
  6676                           ;	EBRTB = OFF, Disabled
  6677   30000D                     	org	3145741
  6678   30000D  40                 	db	64
  6679                           tosu	equ	0xFFF
  6680                           tosh	equ	0xFFE
  6681                           tosl	equ	0xFFD
  6682                           stkptr	equ	0xFFC
  6683                           pclatu	equ	0xFFB
  6684                           pclath	equ	0xFFA
  6685                           pcl	equ	0xFF9
  6686                           tblptru	equ	0xFF8
  6687                           tblptrh	equ	0xFF7
  6688                           tblptrl	equ	0xFF6
  6689                           tablat	equ	0xFF5
  6690                           prodh	equ	0xFF4
  6691                           prodl	equ	0xFF3
  6692                           indf0	equ	0xFEF
  6693                           postinc0	equ	0xFEE
  6694                           postdec0	equ	0xFED
  6695                           preinc0	equ	0xFEC
  6696                           plusw0	equ	0xFEB
  6697                           fsr0h	equ	0xFEA
  6698                           fsr0l	equ	0xFE9
  6699                           wreg	equ	0xFE8
  6700                           indf1	equ	0xFE7
  6701                           postinc1	equ	0xFE6
  6702                           postdec1	equ	0xFE5
  6703                           preinc1	equ	0xFE4
  6704                           plusw1	equ	0xFE3
  6705                           fsr1h	equ	0xFE2
  6706                           fsr1l	equ	0xFE1
  6707                           bsr	equ	0xFE0
  6708                           indf2	equ	0xFDF
  6709                           postinc2	equ	0xFDE
  6710                           postdec2	equ	0xFDD
  6711                           preinc2	equ	0xFDC
  6712                           plusw2	equ	0xFDB
  6713                           fsr2h	equ	0xFDA
  6714                           fsr2l	equ	0xFD9
  6715                           status	equ	0xFD8

Data Sizes:
    Strings     138
    Constant    0
    Data        1
    BSS         12
    Persistent  7
    Stack       0

Auto Spaces:
    Space          Size  Autos    Used
    COMRAM           63     27      47
    BANK0           127      3       3
    BANK1           190      0       0
    BANK2           190      0       0
    BANK3           190      0       0
    BANK4           190      0       0
    BANK5           190      0       0
    BANK6           190      0       0
    BANK7           256      0       0
    BANK8           256      0       0
    BANK9           256      0       0
    BANK10          256      0       0
    BANK11          256      0       0
    BANK12          256      0       0
    BANK13          256      0       0
    BANK14          256      0       0
    BANK15           22      0       0

Pointer List with Targets:

    draw_string@tableau	PTR unsigned char  size(1) Largest target is 21
		 -> STR_1(CODE[8]), STR_10(CODE[10]), STR_11(CODE[6]), STR_12(CODE[6]), 
		 -> STR_13(CODE[7]), STR_14(CODE[21]), STR_15(CODE[12]), STR_16(CODE[12]), 
		 -> STR_17(CODE[3]), STR_18(CODE[4]), STR_2(CODE[3]), STR_3(CODE[3]), 
		 -> STR_4(CODE[3]), STR_5(CODE[7]), STR_6(CODE[11]), STR_7(CODE[13]), 
		 -> STR_8(CODE[6]), STR_9(CODE[9]), 

    fptr	PTR FTN()void  size(3) Largest target is 1
		 -> tache1(), tache2(), tache3(), tache4(), 
		 -> tache5(), tache6(), NULL(), 

    lecture_normale@stid_id	PTR unsigned char  size(2) Largest target is 10
		 -> badge(BIGRAMhl[10]), 

    puc	PTR unsigned char  size(2) Largest target is 2
		 -> val_tos(COMRAM[2]), NULL(NULL[0]), 


Critical Paths under _main in COMRAM

    None.

Critical Paths under _fonction_d_interruption in COMRAM

    _fonction_d_interruption->_tache2
    _tache6->_lecture_normale
    _lecture_normale->_stid_delai_us
    _tache4->_lecture_8bit_analogique
    _tache2->___lwdiv
    _tache1->_goto_lico
    _tache1->_plot1
    _plot1->___awdiv
    _plot1->_d2command
    _initialisation_afficheur->_d2command
    _command->_wait_status_ok
    _goto_lico->_d2command
    _draw_string->_d1command
    _draw_hex8->_d1command
    _draw_char->_d1command
    _clear_text->_d2command
    _clear_graphics->_d2command
    _d2command->_wait_status_ok
    _d1command->_wait_status_ok
    _wait_status_ok->_delai_us_char

Critical Paths under _main in BANK0

    _main->_Init

Critical Paths under _fonction_d_interruption in BANK0

    None.

Critical Paths under _main in BANK1

    None.

Critical Paths under _fonction_d_interruption in BANK1

    None.

Critical Paths under _main in BANK2

    None.

Critical Paths under _fonction_d_interruption in BANK2

    None.

Critical Paths under _main in BANK3

    None.

Critical Paths under _fonction_d_interruption in BANK3

    None.

Critical Paths under _main in BANK4

    None.

Critical Paths under _fonction_d_interruption in BANK4

    None.

Critical Paths under _main in BANK5

    None.

Critical Paths under _fonction_d_interruption in BANK5

    None.

Critical Paths under _main in BANK6

    None.

Critical Paths under _fonction_d_interruption in BANK6

    None.

Critical Paths under _main in BANK7

    None.

Critical Paths under _fonction_d_interruption in BANK7

    None.

Critical Paths under _main in BANK8

    None.

Critical Paths under _fonction_d_interruption in BANK8

    None.

Critical Paths under _main in BANK9

    None.

Critical Paths under _fonction_d_interruption in BANK9

    None.

Critical Paths under _main in BANK10

    None.

Critical Paths under _fonction_d_interruption in BANK10

    None.

Critical Paths under _main in BANK11

    None.

Critical Paths under _fonction_d_interruption in BANK11

    None.

Critical Paths under _main in BANK12

    None.

Critical Paths under _fonction_d_interruption in BANK12

    None.

Critical Paths under _main in BANK13

    None.

Critical Paths under _fonction_d_interruption in BANK13

    None.

Critical Paths under _main in BANK14

    None.

Critical Paths under _fonction_d_interruption in BANK14

    None.

Critical Paths under _main in BANK15

    None.

Critical Paths under _fonction_d_interruption in BANK15

    None.

Call Graph Tables:

 ---------------------------------------------------------------------------------
 (Depth) Function   	        Calls       Base Space   Used Autos Params    Refs
 ---------------------------------------------------------------------------------
 (0) _main                                                 0     0      0      56
                               _Init
           _initialisation_des_ports
          _initialisation_du_systeme
 ---------------------------------------------------------------------------------
 (1) _initialisation_du_systeme                            1     1      0      34
                                              0 BANK0      1     1      0
 ---------------------------------------------------------------------------------
 (1) _initialisation_des_ports                             0     0      0       0
 ---------------------------------------------------------------------------------
 (1) _Init                                                 3     3      0      22
                                              0 BANK0      3     3      0
 ---------------------------------------------------------------------------------
 (Depth) Function   	        Calls       Base Space   Used Autos Params    Refs
 ---------------------------------------------------------------------------------
 (2) _fonction_d_interruption                             10    10      0   24346
                                             17 COMRAM    10    10      0
                             _tache1
                             _tache2
                             _tache3
                             _tache4
                             _tache5
                             _tache6
 ---------------------------------------------------------------------------------
 (3) _tache6                                               1     1      0     755
                                              8 COMRAM     1     1      0
                    _lecture_normale
 ---------------------------------------------------------------------------------
 (4) _lecture_normale                                      6     4      2     688
                                              2 COMRAM     6     4      2
                      _stid_delai_us
 ---------------------------------------------------------------------------------
 (5) _stid_delai_us                                        2     0      2     403
                                              0 COMRAM     2     0      2
 ---------------------------------------------------------------------------------
 (3) _tache5                                               2     2      0      60
                                              0 COMRAM     2     2      0
 ---------------------------------------------------------------------------------
 (3) _tache4                                               1     1      0      60
                                              2 COMRAM     1     1      0
            _lecture_8bit_analogique
 ---------------------------------------------------------------------------------
 (3) _tache3                                               0     0      0       0
 ---------------------------------------------------------------------------------
 (3) _tache2                                              10    10      0     917
                                              7 COMRAM    10    10      0
                            ___lwdiv
                           _tp_delai
 ---------------------------------------------------------------------------------
 (4) _tp_delai                                             2     0      2     175
                                              0 COMRAM     2     0      2
 ---------------------------------------------------------------------------------
 (4) ___lwdiv                                              7     3      4     466
                                              0 COMRAM     7     3      4
 ---------------------------------------------------------------------------------
 (3) _tache1                                               1     1      0   22554
                                             14 COMRAM     1     1      0
                     _clear_graphics
                         _clear_text
                          _draw_char
                          _draw_hex8
                        _draw_string
                          _goto_lico
                          _init_rxtx
           _initialisation_afficheur
            _lecture_8bit_analogique
                              _plot1
                             i2_Init
 ---------------------------------------------------------------------------------
 (4) i2_Init                                               3     3      0      22
                                              0 COMRAM     3     3      0
 ---------------------------------------------------------------------------------
 (4) _plot1                                                6     5      1    4036
                                              8 COMRAM     6     5      1
                            ___awdiv
                            ___awmod
                            _command
                          _d2command
 ---------------------------------------------------------------------------------
 (5) ___awmod                                              6     2      4     600
                                              0 COMRAM     6     2      4
 ---------------------------------------------------------------------------------
 (5) ___awdiv                                              8     4      4     908
                                              0 COMRAM     8     4      4
 ---------------------------------------------------------------------------------
 (4) _lecture_8bit_analogique                              2     2      0      60
                                              0 COMRAM     2     2      0
 ---------------------------------------------------------------------------------
 (4) _initialisation_afficheur                             1     1      0    3450
                                              8 COMRAM     1     1      0
                    _check_status_ok
                            _command
                          _d1command
                          _d2command
                      _delai_us_char
 ---------------------------------------------------------------------------------
 (5) _command                                              2     2      0     140
                                              4 COMRAM     1     1      0
                      _delai_us_char
                     _wait_status_ok
                        _write_c_aff
 ---------------------------------------------------------------------------------
 (5) _check_status_ok                                      1     1      0      30
                                              0 COMRAM     1     1      0
 ---------------------------------------------------------------------------------
 (4) _init_rxtx                                            0     0      0       0
 ---------------------------------------------------------------------------------
 (4) _goto_lico                                            6     5      1    3499
                                              8 COMRAM     6     5      1
                          _d2command
 ---------------------------------------------------------------------------------
 (4) _draw_string                                          1     0      1    2474
                                              7 COMRAM     1     0      1
                          _d1command
 ---------------------------------------------------------------------------------
 (4) _draw_hex8                                            2     2      0    1265
                                              7 COMRAM     2     2      0
                          _d1command
 ---------------------------------------------------------------------------------
 (4) _draw_char                                            1     1      0    1130
                                              7 COMRAM     1     1      0
                          _d1command
 ---------------------------------------------------------------------------------
 (4) _clear_text                                           2     2      0    3286
                                              8 COMRAM     2     2      0
                          _d1command
                          _d2command
 ---------------------------------------------------------------------------------
 (4) _clear_graphics                                       2     2      0    3286
                                              8 COMRAM     2     2      0
                          _d1command
                          _d2command
 ---------------------------------------------------------------------------------
 (5) _d2command                                            4     2      2    2201
                                              4 COMRAM     4     2      2
                      _delai_us_char
                     _wait_status_ok
                        _write_c_aff
                        _write_d_aff
 ---------------------------------------------------------------------------------
 (5) _d1command                                            3     2      1    1039
                                              4 COMRAM     3     2      1
                      _delai_us_char
                     _wait_status_ok
                        _write_c_aff
                        _write_d_aff
 ---------------------------------------------------------------------------------
 (6) _write_d_aff                                          1     1      0      15
                                              0 COMRAM     1     1      0
 ---------------------------------------------------------------------------------
 (6) _write_c_aff                                          1     1      0      15
                                              0 COMRAM     1     1      0
 ---------------------------------------------------------------------------------
 (6) _wait_status_ok                                       3     3      0      90
                                              1 COMRAM     3     3      0
                      _delai_us_char
 ---------------------------------------------------------------------------------
 (7) _delai_us_char                                        1     1      0      15
                                              0 COMRAM     1     1      0
 ---------------------------------------------------------------------------------
 Estimated maximum stack depth 7
 ---------------------------------------------------------------------------------

 Call Graph Graphs:

 _main (ROOT)
   _Init
   _initialisation_des_ports
   _initialisation_du_systeme

 _fonction_d_interruption (ROOT)
   _tache1
     _clear_graphics
       _d1command
         _delai_us_char
         _wait_status_ok
           _delai_us_char
         _write_c_aff
         _write_d_aff
       _d2command
         _delai_us_char
         _wait_status_ok
         _write_c_aff
         _write_d_aff
     _clear_text
       _d1command
       _d2command
     _draw_char
       _d1command
     _draw_hex8
       _d1command
     _draw_string
       _d1command
     _goto_lico
       _d2command
     _init_rxtx
     _initialisation_afficheur
       _check_status_ok
       _command
         _delai_us_char
         _wait_status_ok
         _write_c_aff
       _d1command
       _d2command
       _delai_us_char
     _lecture_8bit_analogique
     _plot1
       ___awdiv
       ___awmod
       _command
       _d2command
     i2_Init
   _tache2
     ___lwdiv
     _tp_delai
   _tache3
   _tache4
     _lecture_8bit_analogique
   _tache5
   _tache6
     _lecture_normale
       _stid_delai_us

 Address spaces:
Name               Size   Autos  Total    Cost      Usage
BIGRAMhhhhhhh      8D4      0       0      58        0.0%
EEDATA             400      0       0       0        0.0%
BITBANK14          100      0       0      56        0.0%
BANK14             100      0       0      31        0.0%
BITBANK13          100      0       0      29        0.0%
BANK13             100      0       0      30        0.0%
BITBANK12          100      0       0      55        0.0%
BANK12             100      0       0      28        0.0%
BITBANK11          100      0       0      26        0.0%
BANK11             100      0       0      27        0.0%
BITBANK10          100      0       0      24        0.0%
BANK10             100      0       0      25        0.0%
BITBANK9           100      0       0      22        0.0%
BANK9              100      0       0      23        0.0%
BITBANK8           100      0       0      20        0.0%
BANK8              100      0       0      21        0.0%
BITBANK7           100      0       0      18        0.0%
BANK7              100      0       0      19        0.0%
BIGRAMhhhhhhl       BE      0       0      59        0.0%
BIGRAMhhhhhl        BE      0       0      60        0.0%
BIGRAMhhhhl         BE      0       0      61        0.0%
BIGRAMhhhl          BE      0       0      62        0.0%
BIGRAMhhl           BE      0       0      63        0.0%
BITBANK6            BE      0       0      16        0.0%
BANK6               BE      0       0      17        0.0%
BITBANK5            BE      0       0      14        0.0%
BANK5               BE      0       0      15        0.0%
BITBANK4            BE      0       0      12        0.0%
BANK4               BE      0       0      13        0.0%
BITBANK3            BE      0       0      10        0.0%
BANK3               BE      0       0      11        0.0%
BITBANK2            BE      0       0       8        0.0%
BANK2               BE      0       0       9        0.0%
BITBANK1            BE      0       0       6        0.0%
BANK1               BE      0       0       7        0.0%
BIGRAMhl            7F      0       0      64        0.0%
BITBANK0            7F      0       0       4        0.0%
BANK0               7F      3       3       5        2.4%
BIGRAMl             5F      0       0      65        0.0%
BITCOMRAM           3F      0       0       0        0.0%
COMRAM              3F     1B      2F       1       74.6%
BITBIGSFRlhll       2C      0       0      52        0.0%
BITBIGSFRlhlhlh     1B      0       0      50        0.0%
BITBANK15           16      0       0      57        0.0%
BANK15              16      0       0      32        0.0%
BITBIGSFRlhlhll     11      0       0      51        0.0%
BITBIGSFRlhhhhh     10      0       0      40        0.0%
BITBIGSFRlhhhhh      F      0       0      39        0.0%
BITBIGSFRll          D      0       0      53        0.0%
BITBIGSFRlhhhhh      C      0       0      42        0.0%
BITBIGSFRhlhllh      5      0       0      38        0.0%
BITBIGSFRlhlhhh      3      0       0      47        0.0%
BITBIGSFRhlhlhh      3      0       0      37        0.0%
BITBIGSFRhlhhhl      3      0       0      35        0.0%
BITBIGSFRlhhhhh      3      0       0      43        0.0%
BITBIGSFRlhhhlh      2      0       0      45        0.0%
BITBIGSFRlhlhhh      2      0       0      48        0.0%
BITBIGSFRhlhhhh      2      0       0      34        0.0%
BITBIGSFRlhhhhl      2      0       0      44        0.0%
BITBIGSFRlhhl        2      0       0      46        0.0%
BITBIGSFRlhlhhl      1      0       0      49        0.0%
BITBIGSFRlhhhhh      1      0       0      41        0.0%
BITBIGSFRhlhlhh      1      0       0      36        0.0%
BITBIGSFRhhlhh       1      0       0      33        0.0%
BIGSFR               0      0       0     200        0.0%
BITSFR_1             0      0       0     200        0.0%
SFR_1                0      0       0     200        0.0%
BITSFR               0      0       0     200        0.0%
SFR                  0      0       0     200        0.0%
STACK                0      0       0       2        0.0%
NULL                 0      0       0       0        0.0%
ABS                  0      0      32      54        0.0%
DATA                 0      0      32       3        0.0%
CODE                 0      0       0       0        0.0%


Microchip Technology PIC18 Macro Assembler V2.45 build 20230818022343 
Symbol Table                                                                                   Tue Nov 19 15:40:11 2024

           ?_lecture_8bit_analogique 0021                       _BSR_TEMPORAIRE 0062  
          ?_initialisation_des_ports 0021                         ___awdiv@sign 0026  
                                 _tc 003C                                  l312 15E4  
                                l145 2558                                  _BSR 0FE0  
                       ?_draw_string 0028                                  _puc 004B  
                       ___awmod@sign 0026                                  wreg 0FE8  
                         _TXSTA1bits 0FAC                        _stid_delai_us 25AC  
                               l1411 23EE                                 l5021 2534  
                               l5101 149C                                 l5031 253E  
                               l5023 2536                                 l5111 14C2  
                               l5103 14A2                                 l5041 2548  
                               l5033 2540                                 l5025 2538  
                               l5121 14FC                                 l5113 14CE  
                               l5105 14AE                                 l5201 264A  
                               l5051 2552                                 l5043 254A  
                               l5035 2542                                 l5027 253A  
                               l5019 2522                                 l5131 1528  
                               l5123 1508                                 l5115 14DE  
                               l5107 14B2                                 l5203 264C  
                               l5053 2554                                 l5045 254C  
                               l5037 2544                                 l5029 253C  
                               l5141 1552                                 l5133 1530  
                               l5125 150C                                 l5117 14EC  
                               l5109 14BE                                 l5061 13EC  
                               l5205 264E                                 l5055 2556  
                               l5047 254E                                 l5039 2546  
                               l5151 158C                                 l5143 1556  
                               l5135 1536                                 l5127 1518  
                               l5119 14F8                                 l5071 140E  
                               l5063 13F0                                 l5049 2550  
                               l5161 15B0                                 l5153 1590  
                               l5145 1562                                 l5137 1542  
                               l5129 151C                                 l5081 143A  
                               l5073 141A                                 l5065 13F4  
                               l5057 13BA                                 l5171 15CE  
                               l5163 15B6                                 l5155 159C  
                               l5147 1572                                 l5139 1546  
                               l5091 1474                                 l5083 144A  
                               l5075 141E                                 l5067 1400  
                               l5059 13DC                                 l5181 23B2  
                               l5173 15D4                                 l5165 15BC  
                               l5157 15A0                                 l5149 1580  
                               l5093 1478                                 l5085 1458  
                               l5077 142A                                 l5069 1408  
                               l5183 23BA                                 l5175 15DE  
                               l5167 15C2                                 l5159 15AC  
                               l5095 1484                                 l5087 1464  
                               l5079 142E                                 l5185 23C2  
                               l5177 15E2                                 l5169 15C8  
                               l5097 1488                                 l5089 1468  
                               l5193 263A                                 l5179 23AE  
                               l5099 1494                                 l5195 263E  
                               l5277 23D8                                 l5197 2642  
                               l5199 2648                                 STR_1 1059  
                               STR_2 1088                                 STR_3 1085  
                               STR_4 107F                                 STR_5 1068  
                               STR_6 103B                                 STR_7 1016  
                               STR_8 1075                                 STR_9 1050  
                               _T0IE 7F95                                 _T0IF 7F92  
                               _LATH 0F90                                 _LATJ 0F91  
                               _TMR0 0FD6      __end_of_fonction_d_interruption 0356  
                               _TOSH 0FFE                                 _TOSL 0FFD  
                               _WREG 0FE8                                 _TOSU 0FFF  
                               _TP_x 0067                                 _TP_y 0068  
                               _Init 23AA                     _FSR0H_TEMPORAIRE 0063  
                         _RXTX_libre 0080                                 _main 263A  
                               _fptr 0048                                 fsr1h 0FE2  
                               fsr2h 0FDA                                 indf2 0FDF  
                               fsr1l 0FE1                                 fsr2l 0FD9  
                               btemp 0001                                 prodh 0FF4  
                               prodl 0FF3                                 start 0356  
         ?_initialisation_du_systeme 0021                         ___param_bank 0000  
                   ??_wait_status_ok 0022                     ?_lecture_normale 0023  
                              ?_Init 0021                                ?_main 0021  
                    __end_of___awdiv 1F38                                STR_10 1046  
                              STR_11 106F                                STR_12 1010  
                              STR_13 1061                                STR_14 1001  
                              STR_15 1023                                STR_16 102F  
                              STR_17 1082                                STR_18 107B  
                    __end_of___awmod 1FE8                                _T0CON 0FD5  
                    ___awdiv@divisor 0023                                _DRIVE 0043  
                              _FSR0H 0FEA                                _FSR1H 0FE2  
                              _FSR0L 0FE9                                _FSR2H 0FDA  
                              _FSR1L 0FE1                                _FSR2L 0FD9  
                    __end_of___lwdiv 21DC                                i2l150 238C  
                              i2l151 23A2                                i2l153 23A8  
                              i2l148 237E                                i2l309 032C  
                              i2l434 116C                                i2l453 13B2  
                              i2l561 19A8                                i2l564 19FA  
                              i2l900 1638                                i2l566 1A08  
                              i2l559 199A                                i2l903 1646  
                              i2l912 1678                                i2l577 25D4  
                              i2l921 16A6                                i2l930 16D8  
                              i2l906 1658                                i2l579 25F2  
                              i2l915 1686                                i2l668 1810  
                              i2l924 16B8                                i2l677 1972  
                              i2l933 16E6                                i2l909 1666  
                              i2l942 1718                                i2l918 1698  
                              i2l951 1746                                i2l927 16C6  
                              i2l960 1778                                i2l936 16F8  
                              i2l945 1726                                i2l954 1758  
                              i2l963 1786                                i2l939 1706  
                              i2l891 1606                                i2l972 17B8  
                              i2l948 1738                                i2l884 15E6  
                    ___awdiv@counter 0025                                i2l789 1BD6  
                              i2l957 1766                                i2l885 15E6  
                              i2l966 1798                                i2l894 1618  
                              i2l888 15F8                                i2l969 17A6  
                              i2l897 1626                                _PRODH 0FF4  
                              _PRODL 0FF3                                _PORTH 0F87  
                              _TRISH 0F99                                _TRISJ 0F9A  
                        _write_c_aff 2672                          _write_d_aff 2658  
                    write_d_aff@data 0021                       ?_stid_delai_us 0021  
                    __end_of_command 2618                                _badge 0075  
                              _plot1 1DA2                                _queue 0069  
                              tablat 0FF5                                ltemp0 0001  
                              ltemp1 0005                                ltemp2 0009  
              __end_of_delai_us_char 2588                      _check_status_ok 2474  
                              ttemp0 0001                                ttemp1 0004  
                              ttemp2 0007                                ttemp3 000A  
                              ttemp5 0002                                ttemp6 0005  
                              ttemp7 0009                                status 0FD8  
                              wtemp0 0001                                wtemp1 0003  
                              wtemp2 0005                                wtemp3 0007  
                              wtemp4 0009                                wtemp5 000B  
                              wtemp8 0002        initialisation_du_systeme@temp 0081  
                    __initialization 2588                         __end_of_Init 23F0  
         lecture_8bit_analogique@ret 0021                         __end_of_main 2658  
                     _WHEELDIRECTION 003F                               ??_Init 0081  
                             ??_main 0084                        __activetblptr 0003  
                             _ADCON0 0FC2                               _ADCON1 0FC1  
                             _ADCON2 0FC0                               _ADRESH 0FC4  
                             _ADRESL 0FC3                               ?_plot1 0029  
                             _ANCON0 0F25                               _ANCON1 0F24  
                             _ANCON2 0F23                     ___awdiv@dividend 0021  
                      _n_octet_badge 007F                               _ENGINE 0045  
                             _MEMCON 0F26                               i2l1203 2616  
                             i2l1220 2586                               i2l1214 22BC  
                             i2l1230 1CC0                               i2l1208 235C  
                             i2l1218 2560                               i2l1226 1C2A  
                             i2l1227 1C2A                               i2l1411 2472  
                             i2l1236 22F2                               i2l1260 205A  
                             i2l1244 21E0                               i2l1068 23F0  
                             i2l1309 1E72                               i2l1182 2670  
                             i2l1238 230E                               i2l1262 2076  
                             i2l1190 24AC                               i2l2142 21DA  
                             i2l1255 2014                               i2l2135 21D2  
                             i2l1280 20CE                               i2l2321 2576  
                             i2l1185 268A                               i2l1249 224E  
                             i2l3201 1884                               i2l1194 20FC  
                             i2l1282 20EE                               i2l1530 1D0A  
                             i2l2331 2666                               i2l2323 265A  
                             i2l4003 24FE                               i2l4011 2082  
                             i2l3211 18C6                               i2l3203 1886  
                             i2l1292 2520                               i2l1532 1D1C  
                             i2l2317 255C                               i2l2341 2674  
                             i2l2333 2668                               i2l2325 265E  
                             i2l4005 2508                               i2l4021 20D0  
                             i2l4013 2092                               i2l1189 24AA  
                             i2l3213 18D6                               i2l3205 1896  
                             i2l3221 18FA                               i2l3301 16F4  
                             i2l1533 1D24                               i2l4101 1CE6  
                             i2l1542 25B0                               i2l2319 2574  
                             i2l1199 2166                               i2l2351 2682  
                             i2l2343 2678                               i2l2335 266A  
                             i2l2327 2662                               i2l4007 250C  
                             i2l1287 24E6                               i2l4031 22E8  
                             i2l4023 22C0                               i2l4015 2096  
                             i2l3231 194A                               i2l3223 190A  
                             i2l3215 18D8                               i2l3207 18A6  
                             i2l3311 1794                               i2l3303 1714  
                             i2l1535 1D38                               i2l4103 1CE8  
                             i2l1544 25CE                               i2l2361 210E  
                             i2l2353 2684                               i2l2345 267C  
                             i2l2337 266C                               i2l2329 2664  
                             i2l4033 22F4                               i2l4025 22D0  
                             i2l4041 220E                               i2l4017 20A6  
                             i2l4009 207A                               i2l1641 2638  
                             i2l3233 194C                               i2l3225 191A  
                             i2l3217 18E8                               i2l3209 18B6  
                             i2l3241 1ABC                               i2l3321 17CE  
                             i2l3313 17B4                               i2l3305 1734  
                             i2l1537 1DA0                               i2l4121 1D4C  
                             i2l4105 1CF6                               i2l2371 2146  
                             i2l2363 2126                               i2l2355 2686  
                             i2l2347 267E                               i2l2339 266E  
                             i2l4027 22D4                               i2l4051 2016  
                             i2l4043 222E                               i2l4035 21DC  
                             i2l4019 20AA                               i2l3235 195C  
                             i2l3227 192A                               i2l3219 18F8  
                             i2l3251 1AF0                               i2l3243 1ACE  
                             i2l3331 17F0                               i2l3323 17D2  
                             i2l3315 17C6                               i2l3307 1754  
                             i2l4131 1D78                               i2l4123 1D58  
                             i2l4115 1D32                               i2l4107 1CFA  
                             i2l2365 2128                               i2l2373 214E  
                             i2l2357 2688                               i2l2349 2680  
                             i2l4029 22E4                               i2l4053 2030  
                             i2l4045 1FEA                               i2l4037 21E2  
                             i2l2381 2474                               i2l2541 2376  
                             i2l4061 1DA4                               i2l3237 196C  
                             i2l3229 193A                               i2l3261 1B2E  
                             i2l3253 1AF4                               i2l3245 1AD6  
                             i2l3333 17F4                               i2l3325 17E8  
                             i2l3309 1774                               i2l4133 1D88  
                             i2l4125 1D5A                               i2l4117 1D3E  
                             i2l4109 1D18                               i2l2367 212E  
                             i2l2375 2152                               i2l2359 20F0  
                             i2l4055 2046                               i2l4047 2000  
                             i2l4039 220C                               i2l2607 2618  
                             i2l2383 248A                               i2l2391 25F6  
                             i2l2543 237C                               i2l2535 2360  
                             i2l4071 1DFE                               i2l4063 1DCE  
                             i2l4311 10A4                               i2l4303 108C  
                             i2l4151 2182                               i2l3191 1842  
                             i2l3263 1B3E                               i2l3271 1B70  
                             i2l3255 1B04                               i2l3247 1ADA  
                             i2l3239 1AAE                               i2l4135 1D8A  
                             i2l4127 1D66                               i2l4119 1D4A  
                             i2l4143 1D9E                               i2l2377 2164  
                             i2l2369 213E                               i2l4057 2050  
                             i2l4049 200A                               i2l2609 261C  
                             i2l2385 249E                               i2l2393 25F6  
                             i2l2545 239A                               i2l2537 2368  
                             i2l4073 1E08                               i2l4065 1DE0  
                             i2l4401 1200                               i2l4321 10B4  
                             i2l4313 10AA                               i2l4305 108E  
                             i2l4161 21BC                               i2l4153 218A  
                             i2l3193 1852                               i2l3185 1810  
                             i2l3281 1BC0                               i2l3273 1B88  
                             i2l3265 1B4E                               i2l3257 1B14  
                             i2l3249 1AE8                               i2l4137 1D98  
                             i2l4129 1D68                               i2l4059 205C  
                             i2l2387 24A6                               i2l2395 260A  
                             i2l2547 23A6                               i2l2539 236E  
                             i2l4075 1E12                               i2l4067 1DEA  
                             i2l4171 2438                               i2l4411 1230  
                             i2l4403 1208                               i2l4331 10CC  
                             i2l4323 10B6                               i2l4315 10AE  
                             i2l4307 109A                               i2l4163 21C4  
                             i2l4155 2192                               i2l4147 2168  
                             i2l3195 1862                               i2l3187 1822  
                             i2l3283 1BCE                               i2l3275 1B94  
                             i2l3267 1B5C                               i2l3259 1B22  
                             i2l3291 1654                               i2l4091 1CC2  
                             _PCLATH 0FFA                               i2l2397 2610  
                             i2l4069 1DF4                               i2l4173 2440  
                             i2l4421 125C                               i2l4413 1238  
                             i2l4405 1216                               i2l4341 10EA  
                             i2l4333 10D2                               i2l4325 10BA  
                             i2l4317 10B0                               i2l4309 109E  
                             i2l4165 21C6                               i2l4157 21A0  
                             i2l4149 2170                               i2l4085 25D0  
                             i2l4501 19CE                               i2l3197 1864  
                             i2l3189 1832                               i2l3277 1BAC  
                             i2l3269 1B68                               i2l3293 1674  
                             i2l3285 15F4                               i2l4093 1CC8  
                             i2l2399 2616                               i2l4079 1E1C  
                             i2l4175 2448                               i2l4431 1288  
                             i2l4423 1264                               i2l4415 1246  
                             i2l4407 1220                               i2l4351 110C  
                             i2l4343 10F4                               i2l4335 10D8  
                             i2l4327 10BE                               i2l4319 10B2  
                             i2l4167 21CC                               i2l4159 21A6  
                             i2l4087 25DA                               i2l4511 19F6  
                             i2l4503 19DE                               i2l3199 1874  
                             i2l3279 1BB8                               i2l3295 1694  
                             i2l3287 1614                               i2l4095 1CD4  
                             i2l4169 2434                               i2l4441 12BA  
                             i2l4433 1296                               i2l4425 126E  
                             i2l4417 124A                               i2l4409 1226  
                             i2l4361 112E                               i2l4353 1112  
                             i2l4345 10FA                               i2l4337 10DE  
                             i2l4329 10C2                               i2l4089 25E0  
                             i2l4521 1A56                               i2l4513 1A10  
                             i2l4505 19E2                               i2l3297 16B4  
                             i2l3289 1634                               i2l4097 1CD6  
                             i2l4601 00B0                               i2l1875 1F36  
                             i2l4451 12F2                               i2l4443 12C6  
                             i2l4435 129A                               i2l4427 1276  
                             i2l4419 1258                               i2l4371 1152  
                             i2l4363 1134                               i2l4355 111C  
                             i2l4347 1100                               i2l4339 10E4  
                             i2l4523 1A62                               i2l4515 1A26  
                             i2l4507 19EE                               i2l3299 16D4  
                             i2l4099 1CDA                               i2l4611 00C4  
                             i2l4603 00B4                               i2l3821 2312  
                             i2l3901 1F00                               i2l4461 132E  
                             i2l4453 12FE                               i2l4445 12CE  
                             i2l4437 12A2                               i2l4429 1284  
                             i2l4381 1198                               i2l4373 1160  
                             i2l4365 113A                               i2l4357 1122  
                             i2l4349 1106                               i2l4525 1A6E  
                             i2l4517 1A2E                               i2l4509 19F2  
                             i2l4541 2426                               i2l4533 23F0  
                             i2l4701 0180                               i2l4621 00E0  
                             i2l4613 00C8                               i2l4605 00B8  
                             i2l3831 234A                               i2l3823 2316  
                             i2l3911 1F26                               i2l3903 1F08  
                             i2l4471 1366                               i2l4463 1338  
                             i2l4455 1306                               i2l4447 12D8  
                             i2l4439 12AC                               i2l4391 11C8  
                             i2l4383 11A0                               i2l4375 117A  
                             i2l4367 1140                               i2l4359 1128  
                             i2l4527 1A88                               i2l4519 1A3E  
                             i2l4535 23FE                               i2l4711 019C  
                             i2l4703 0184                               i2l4631 00F4  
                             i2l4623 00E4                               i2l4615 00D4  
                             i2l4607 00BC                               i2l1888 1FE6  
                             i2l3833 2350                               i2l3825 232A  
                             i2l3841 2252                               i2l3913 1F2E  
                             i2l3905 1F0A                               i2l3921 1F4A  
                             i2l5281 1E3C                               i2l4481 139A  
                             i2l4473 1378                               i2l4465 1340  
                             i2l4457 1318                               i2l4449 12E0  
                             i2l4393 11D0                               i2l4385 11AE  
                             i2l4377 1186                               i2l4369 114A  
                             i2l4537 240E                               i2l4801 0266  
                             i2l4721 01BA                               i2l4713 019E  
                             i2l4705 0188                               i2l4641 0108  
                             i2l4633 00F8                               i2l4625 00E8  
                             i2l4617 00D8                               i2l4609 00C0  
                             i2l4561 0038                               _PCLATU 0FFB  
                             i2l3835 2356                               i2l3827 2330  
                             i2l3851 228A                               i2l3843 2256  
                             i2l3907 1F10                               i2l3931 1F7E  
                             i2l3923 1F52                               i2l4475 1382  
                             i2l4467 134A                               i2l4459 131A  
                             i2l4395 11DA                               i2l4387 11B8  
                             i2l4379 118E                               i2l4491 198E  
                             i2l4483 1978                               i2l4539 241E  
                             i2l4811 027A                               i2l4803 026A  
                             i2l4731 01DA                               i2l4723 01CA  
                             i2l4715 01A2                               i2l4707 018C  
                             i2l4651 011C                               i2l4643 010C  
                             i2l4635 00FC                               i2l4627 00EC  
                             i2l4619 00DC                               i2l4571 0056  
                             i2l4563 003C                               i2l3829 2336  
                             i2l3837 235A                               i2l3861 22B6  
                             i2l3853 2290                               i2l3845 226A  
                             i2l3909 1F16                               i2l3941 1FBA  
                             i2l3933 1F86                               i2l3925 1F56  
                             i2l3917 1F38                               i2l4477 138A  
                             i2l4469 1354                               i2l4397 11EC  
                             i2l4389 11BE                               i2l4493 1992  
                             i2l4485 197E                               i2l4821 028E  
                             i2l4813 027E                               i2l4805 026E  
                             i2l4741 01EE                               i2l4733 01DE  
                             i2l4725 01CE                               i2l4717 01A4  
                             i2l4709 0190                               i2l4661 0130  
                             i2l4653 0120                               i2l4645 0110  
                             i2l4637 0100                               i2l4629 00F0  
                             i2l4581 0088                               i2l4573 0064  
                             i2l4565 0040                               i2l3855 2296  
                             i2l3847 2270                               i2l3863 22BA  
                             i2l3943 1FC0                               i2l3935 1F8E  
                             i2l3927 1F64                               i2l3919 1F3C  
                             i2l5279 245C                               i2l4479 1392  
                             i2l4399 11F6                               i2l4495 1996  
                             i2l4487 1980                               i2l3871 25BC  
                             i2l4831 02A2                               i2l4823 0292  
                             i2l4815 0282                               i2l4807 0272  
                             i2l4751 0202                               i2l4743 01F2  
                             i2l4735 01E2                               i2l4727 01D2  
                             i2l4719 01B6                               i2l4671 0144  
                             i2l4663 0134                               i2l4655 0124  
                             i2l4647 0114                               i2l4639 0104  
                             i2l4591 009C                               i2l4583 008C  
                             i2l4575 0074                               i2l4567 0044  
                             i2l4559 0034                               i2l3857 22AA  
                             i2l3849 2276                               i2l3961 1BF8  
                             i2l3953 1BDE                               i2l3881 1E92  
                             i2l3873 1E74                               i2l3937 1F9C  
                             i2l3945 1FC6                               i2l3929 1F6C  
                             i2l4497 19B0                               i2l4489 1982  
                             i2l4841 02B6                               i2l4833 02A6  
                             i2l4825 0296                               i2l4817 0286  
                             i2l4809 0276                               i2l4761 0216  
                             i2l4753 0206                               i2l4745 01F6  
                             i2l4737 01E6                               i2l4729 01D6  
                             i2l4681 0158                               i2l4673 0148  
                             i2l4665 0138                               i2l4657 0128  
                             i2l4649 0118                               i2l4593 00A0  
                             i2l4585 0090                               i2l4577 007C  
                             i2l4569 0048                               i2l3859 22B0  
                             i2l3971 1C12                               i2l3963 1BFE  
                             i2l3955 1BF2                               i2l3891 1EC6  
                             i2l3883 1EA0                               i2l3875 1E78  
                             i2l3947 1FD6                               i2l3939 1FB2  
                             i2l4499 19C6                               i2l3867 25AC  
                             i2l4851 02CA                               i2l4843 02BA  
                             i2l4835 02AA                               i2l4827 029A  
                             i2l4819 028A                               i2l4771 022A  
                             i2l4763 021A                               i2l4755 020A  
                             i2l4747 01FA                               i2l4739 01EA  
                             i2l4691 016C                               i2l4683 015C  
                             i2l4675 014C                               i2l4667 013C  
                             i2l4659 012C                               i2l4595 00A4  
                             i2l4587 0094                               i2l4579 0084  
                             i2l3981 24AE                               i2l3973 1C22  
                             i2l3965 1C00                               i2l3957 1BF4  
                             i2l3893 1ECE                               i2l3885 1EA8  
                             i2l3877 1E86                               i2l3949 1FDE  
                             i2l3869 25B6                               i2l4861 02DE  
                             i2l4853 02CE                               i2l4845 02BE  
                             i2l4837 02AE                               i2l4829 029E  
                             i2l4781 023E                               i2l4773 022E  
                             i2l4765 021E                               i2l4757 020E  
                             i2l4749 01FE                               i2l4693 0170  
                             i2l4685 0160                               i2l4677 0150  
                             i2l4669 0140                               i2l4597 00A8  
                             i2l4589 0098                               i2l3991 24CE  
                             i2l3983 24BC                               i2l3967 1C0A  
                             i2l3959 1BF6                               i2l3895 1ED6  
                             i2l3887 1EAC                               i2l3879 1E8E  
                             i2l4871 02F2                               i2l4863 02E2  
                             i2l4855 02D2                               i2l4847 02C2  
                             i2l4839 02B2                               i2l4791 0252  
                             i2l4783 0242                               i2l4775 0232  
                             i2l4767 0222                               i2l4759 0212  
                             i2l4695 0174                               i2l4687 0164  
                             i2l4679 0154                               i2l4599 00AC  
                             i2l3993 24D2                               i2l3969 1C0C  
                             i2l3977 1C2E                               i2l3897 1EE4  
                             i2l3889 1EB4                               i2l4881 0306  
                             i2l4873 02F6                               i2l4865 02E6  
                             i2l4857 02D6                               i2l4849 02C6  
                             i2l4793 0256                               i2l4785 0246  
                             i2l4777 0236                               i2l4769 0226  
                             i2l4697 0178                               i2l4689 0168  
                             i2l3995 24E8                               i2l3979 1C42  
                             i2l3899 1EEA                               i2l4891 031C  
                             i2l4883 030A                               i2l4875 02F8  
                             i2l4867 02EA                               i2l4859 02DA  
                             i2l4795 025A                               i2l4787 024A  
                             i2l4779 023A                               i2l4699 017C  
                             i2l3997 24F6                               i2l3989 24C4  
                             i2l4893 0320                               i2l4885 030E  
                             i2l4869 02EE                               i2l4797 025E  
                             i2l4789 024E                               i2l4877 02FE  
                             _TABLAT 0FF5                               i2l4895 0324  
                             i2l4887 0314                               i2l4879 0302  
                             i2l4799 0262                               i2l4897 0328  
                             i2l4889 0318                               _RCSTA1 0FAB  
                         _Tick_Count 0071                               _SPBRG1 0FAF  
                             i2u1_40 2586                               i2u1_41 2582  
                             i2u2_40 2126                               i2u2_41 2122  
                             i2u3_40 213E                               i2u3_41 213A  
                             i2u4_40 2164                               i2u4_41 2160  
                   _FSR0L_TEMPORAIRE 0064                               i2u5_40 249E  
                             i2u5_41 249A                               i2u6_40 260A  
                             i2u6_41 2606                               _STATUS 0FD8  
                             i2_Init 2432                               _STKPTR 0FFC  
                             _TXREG1 0FAD                               _TXSTA1 0FAC  
                          ??___awdiv 0025                            ??___awmod 0025  
                          ??___lwdiv 0025                               _tache1 108C  
                             _tache2 1978                               _tache3 1810  
                             _tache4 1AAE                               _tache5 15E6  
                             _tache6 23F0                               clear_0 25A0  
                   ___awdiv@quotient 0027                      ___awmod@divisor 0023  
                             isa$std 0001                      ___awmod@counter 0025  
                          ??_command 0025                      ??_stid_delai_us 0023  
                       __pdataCOMRAM 004F                               lltemp0 0001  
                             lltemp1 0009                               lltemp2 0011  
                             lltemp3 0019                               plot1@x 002E  
                             plot1@y 0029                     __end_of_tp_delai 25F4  
                       __mediumconst 0000                               tblptrh 0FF7  
                             tblptrl 0FF6                               tblptru 0FF8  
            __end_of_check_status_ok 24AE         lecture_normale@temps_attente 0025  
                         __accesstop 0060              __end_of__initialization 25A6  
                      ___rparam_used 0001                       __pcstackCOMRAM 0021  
                         ___inthi_sp 0AAC                    __end_of_d1command 235E  
                  __end_of_d2command 22BE                        __end_of_plot1 1E74  
                            ??_plot1 002A                         _W_TEMPORAIRE 0060  
                            ?i2_Init 0021                           __pnvCOMRAM 0048  
                     _clear_graphics 24E8          ??_initialisation_du_systeme 0081  
                         _clear_text 24AE             ?_fonction_d_interruption 0021  
                            ?_tache1 0021                              ?_tache2 0021  
                            ?_tache3 0021                              ?_tache4 0021  
                            ?_tache5 0021                              ?_tache6 0021  
                       ?_write_c_aff 0021                         ?_write_d_aff 0021  
                            _TBLPTRH 0FF7                              _TBLPTRL 0FF6  
                            _TBLPTRU 0FF8                              i2u25_40 238C  
                            i2u25_41 2388                              i2u26_40 239A  
                            i2u26_41 2396             _initialisation_afficheur 1BDE  
                            i2u80_40 18A6                              i2u72_40 1822  
                            i2u80_41 18A2                              i2u72_41 181E  
                            i2u81_40 18B6                              i2u73_40 1832  
                            i2u81_41 18B2                              i2u73_41 182E  
                            i2u90_40 194A                              i2u82_40 18C6  
                            i2u74_40 1842                              i2u90_41 1946  
                            i2u82_41 18C2                              i2u74_41 183E  
                            i2u91_40 195C                              i2u83_40 18D6  
                            i2u75_40 1852                              i2u91_41 1958  
                            i2u83_41 18D2                              i2u75_41 184E  
                            _SPBRGH1 0FD4                              i2u92_40 196C  
                            i2u84_40 18E8                              i2u76_40 1862  
                            i2u92_41 1968                              i2u84_41 18E4  
                            i2u76_41 185E                              i2u85_40 18F8  
                            i2u77_40 1874                              i2u93_40 1ABC  
                            i2u85_41 18F4                              i2u77_41 1870  
                            i2u93_41 1AB8                              i2u86_40 190A  
                            i2u78_40 1884                              i2u94_40 1ACE  
                            i2u86_41 1906                              i2u78_41 1880  
                            i2u94_41 1ACA                              i2u87_40 191A  
                            i2u79_40 1896                              i2u95_40 1AE8  
                            i2u87_41 1916                              i2u79_41 1892  
                            i2u95_41 1AE4                              i2u88_40 192A  
                            i2u96_40 1B04                              i2u88_41 1926  
                            i2u96_41 1B00                              i2u89_40 193A  
                            i2u97_40 1B14                              i2u89_41 1936  
                            i2u97_41 1B10                              i2u98_40 1B22  
                            i2u98_41 1B1E                              i2u99_40 1B3E  
                            i2u99_41 1B3A                     ?_check_status_ok 0021  
                  wait_status_ok@err 0022                    wait_status_ok@res 0024  
                            Init@sem 0083                          _Val_sem_cna 0047  
             __end_of_clear_graphics 2522                    stid_delai_us@isdu 0021  
               lecture_normale@n_bit 0027                 lecture_normale@octet 0028  
           _initialisation_des_ports 2522                            _DEMARRAGE 0065  
                            __Hparam 0000                              __Lparam 0000  
                          _HANDBRAKE 004F                            ?_tp_delai 0021  
                  __end_of_draw_char 2310                    __end_of_draw_hex8 2078  
                            ___awdiv 1E74                              ___awmod 1F38  
                            ___lwdiv 2168                         __psmallconst 1000  
                            __pcinit 2588                              __ramtop 1000  
                     draw_char@dccar 0028                              __ptext0 263A  
                            __ptext1 13BA                              __ptext2 2522  
                            __ptext3 23AA                              __ptext5 23F0  
                            __ptext6 1CC2                              __ptext7 25AC  
                            __ptext8 15E6                              __ptext9 1AAE  
                            _command 25F4                            _T0CONbits 0FD5  
                 draw_string@tableau 0028            _initialisation_du_systeme 13BA  
                   ___awmod@dividend 0021                    __end_of_init_rxtx 263A  
                  __end_of_goto_lico 20F0                              _val_tos 004D  
                     draw_hex8@octet 0028                              _vitesse 0073  
               end_of_initialization 25A6                              tache1@i 002F  
                            tache5@a 0021                              tache6@n 0029  
                    ?_clear_graphics 0021                          ?_clear_text 0021  
                         ??_tp_delai 0023                              postinc0 0FEE  
                          i2Init@sem 0023                         goto_lico@adr 002D  
                          _PORTBbits 0F81                            _PORTDbits 0F83  
                          _PORTEbits 0F84              _lecture_8bit_analogique 235E  
                          _TRISCbits 0F94                            _STKPTR_T1 0103  
                          _STKPTR_T2 0203                            _STKPTR_T3 0303  
                          _STKPTR_T4 0403                            _STKPTR_T5 0503  
                          _STKPTR_T6 0603                            _TRISDbits 0F95  
                          _TRISGbits 0F98                    clear_graphics@add 0029  
                         command@cmd 0025                       __end_ofi2_Init 2474  
                         draw_hex8@c 0029                   check_status_ok@res 0021  
             lecture_normale@n_octet 0026       lecture_8bit_analogique@channel 0022  
                      __pidataCOMRAM 268C                            _d1command 2310  
                          _d2command 2250                       __end_of_tache1 13BA  
                     __end_of_tache2 1AAE                       __end_of_tache3 1978  
                     __end_of_tache4 1BDE                       __end_of_tache5 1810  
                     __end_of_tache6 2432                        ??_draw_string 0029  
             lecture_normale@stid_id 0023                __end_of_stid_delai_us 25D0  
                start_initialization 2588                    ??_lecture_normale 0025  
                      _delai_us_char 255A                             ??i2_Init 0021  
                           ??_tache1 002F                             ??_tache2 0028  
                           ??_tache3 0021                             ??_tache4 0023  
                           ??_tache5 0021                             ??_tache6 0029  
         ??_initialisation_afficheur 0029            ??_lecture_8bit_analogique 0021  
                      clear_text@add 0029                           ?_d1command 0025  
               delai_us_char@ucdelai 0021                           ?_d2command 0025  
                        __pbssCOMRAM 003C                        __pcstackBANK0 0081  
         ??_initialisation_des_ports 0081                  __end_of_draw_string 2250  
                     ?_delai_us_char 0021                     ___lwdiv@dividend 0021  
                          __pintcode 0008                             ?___awdiv 0021  
                           ?___awmod 0021                             ?___lwdiv 0021  
                  _pointeur_de_tache 0070                            _draw_char 22BE  
                          _draw_hex8 1FE8                             ?_command 0021  
                     _wait_status_ok 20F0                          __smallconst 1000  
                          _contexte1 0100                            _contexte2 0200  
                          _contexte3 0300                            _contexte4 0400  
                          _contexte5 0500                            _contexte6 0600  
                           _BAUDCON1 0F65                     goto_lico@colonne 0029  
                       _tache_active 006F                          _PADCFG1bits 0F53  
                   ??_clear_graphics 0029                     ___lwdiv@quotient 0025  
                          _init_rxtx 2618                   write_c_aff@command 0021  
                          _goto_lico 2078      __end_of_lecture_8bit_analogique 23AA  
                           _FORKLIFT 0041                             _LATCbits 0F8B  
                           _LATDbits 0F8C    __end_of_initialisation_du_systeme 15E6  
                           _LATGbits 0F8F                             _LATJbits 0F91  
                           i2u100_40 1B4E                             i2u100_41 1B4A  
                           i2u101_40 1B5C                             i2u101_41 1B58  
                           i2u102_40 1B88                             i2u110_40 1646  
                           i2u102_41 1B84                             i2u110_41 1642  
                           i2u103_40 1BAC                             i2u111_40 1654  
                           i2u103_41 1BA8                             i2u111_41 1650  
                           i2u200_40 12BA                             i2u104_40 1BCE  
                           i2u120_40 16E6                             i2u112_40 1666  
                           i2u200_41 12B6                             i2u104_41 1BCA  
                           i2u120_41 16E2                             i2u112_41 1662  
                           i2u201_40 12F2                             i2u121_40 16F4  
                           i2u113_40 1674                             i2u105_40 15F4  
                           i2u201_41 12EE                             i2u121_41 16F0  
                           i2u113_41 1670                             i2u105_41 15F0  
                           i2u202_40 132E                             i2u130_40 1786  
                           i2u122_40 1706                             i2u114_40 1686  
                           i2u106_40 1606                             i2u210_40 240E  
                           i2u202_41 132A                             i2u130_41 1782  
                           i2u122_41 1702                             i2u114_41 1682  
                           i2u106_41 1602                             i2u210_41 240A  
                           i2u203_40 1378                             i2u131_40 1794  
                           i2u123_40 1714                             i2u115_40 1694  
                           i2u107_40 1614                             i2u211_40 241E  
                           i2u203_41 1374                             i2u131_41 1790  
                           i2u123_41 1710                             i2u115_41 1690  
                           i2u107_41 1610                             i2u211_41 241A  
                           i2u204_40 19A8                             i2u132_40 17A6  
                           i2u124_40 1726                             i2u116_40 16A6  
                           i2u108_40 1626                             i2u212_40 0056  
                           i2u204_41 19A4                             i2u132_41 17A2  
                           i2u124_41 1722                             i2u116_41 16A2  
                           i2u108_41 1622                             i2u212_41 0052  
                           i2u205_40 19C6                             i2u133_40 17B4  
                           i2u125_40 1734                             i2u117_40 16B4  
                           i2u109_40 1634                             i2u213_40 0064  
                           i2u205_41 19C2                             i2u133_41 17B0  
                           i2u125_41 1730                             i2u117_41 16B0  
                           i2u109_41 1630                             i2u213_41 0060  
                           i2u150_40 228A                             i2u206_40 19DE  
                           i2u134_40 17C6                             i2u126_40 1746  
                           i2u118_40 16C6                             i2u214_40 0074  
                           i2u150_41 2286                             i2u206_41 19DA  
                           i2u134_41 17C2                             i2u126_41 1742  
                           i2u118_41 16C2                             i2u214_41 0070  
                           i2u151_40 22AA                             i2u207_40 1A08  
                           i2u135_40 17E8                             i2u127_40 1754  
                           i2u119_40 16D4                             i2u215_40 01B6  
                           i2u151_41 22A6                             i2u207_41 1A04  
                           i2u135_41 17E4                             i2u127_41 1750  
                           i2u119_41 16D0                             i2u215_41 01B2  
                           i2u160_40 1F64                             i2u208_40 1A26  
                           i2u136_40 180A                             i2u128_40 1766  
                           i2u152_40 25CE                             i2u160_41 1F60  
                           i2u208_41 1A22                             i2u136_41 1806  
                           i2u128_41 1762                             i2u152_41 25CA  
                           i2u153_40 1E86                             i2u161_40 1F7E  
                           i2u209_40 1A3E                             i2u129_40 1774  
                           i2u153_41 1E82                             i2u161_41 1F7A  
                           i2u209_41 1A3A                             i2u129_41 1770  
                           i2u170_40 20A6                             i2u154_40 1EA0  
                           i2u162_40 1F9C                             i2u170_41 20A2  
                           i2u154_41 1E9C                             i2u162_41 1F98  
                           i2u147_40 232A                             i2u171_40 20EE  
                           i2u155_40 1EC6                             i2u163_40 1FB2  
                           i2u147_41 2326                             i2u171_41 20EA  
                           i2u155_41 1EC2                             i2u163_41 1FAE  
                           i2u148_40 234A                             i2u172_40 22D0  
                           i2u180_40 2046                             i2u156_40 1EE4  
                           i2u164_40 1FD6                             i2u148_41 2346  
                           i2u172_41 22CC                             i2u180_41 2042  
                           i2u156_41 1EE0                             i2u164_41 1FD2  
                           i2u149_40 226A                             i2u173_40 22E4  
                           i2u181_40 2076                             i2u165_40 1C22  
                           i2u157_40 1F00                             i2u149_41 2266  
                           i2u173_41 22E0                             i2u181_41 2072  
                           i2u165_41 1C1E                             i2u157_41 1EFC  
                           i2u174_40 230E                             i2u166_40 1C42  
                           i2u158_40 1F26                             i2u190_40 21A0  
                           i2u182_40 25F2                             i2u174_41 230A  
                           i2u166_41 1C3E                             i2u158_41 1F22  
                           i2u190_41 219C                             i2u182_41 25EE  
                           i2u167_40 24E6                             i2u175_40 220C  
                           i2u159_40 1F4A                             i2u191_40 21BC  
                           i2u183_40 1CF6                             i2u167_41 24E2  
                           i2u175_41 2208                             i2u159_41 1F46  
                           i2u191_41 21B8                             i2u183_41 1CF2  
                           i2u168_40 2520                             i2u176_40 222E  
                           i2u192_40 1160                             i2u184_40 1D0A  
                           i2u168_41 251C                             i2u176_41 222A  
                           i2u192_41 115C                             i2u184_41 1D06  
                           i2u177_40 224E                             i2u169_40 2092  
                           i2u193_40 117A                             i2u185_40 1D18  
                           i2u177_41 224A                             i2u169_41 208E  
                           i2u193_41 1176                             i2u185_41 1D14  
                           _PIR1bits 0F9E                             i2u178_40 2000  
                           i2u194_40 11AE                             i2u186_40 1D32  
                           i2u178_41 1FFC                             i2u194_41 11AA  
                           i2u186_41 1D2E                             i2u179_40 2030  
                           i2u195_40 1216                             i2u187_40 1D78  
                           i2u179_41 202C                             i2u195_41 1212  
                           i2u187_41 1D74                             i2u196_40 1246  
                           i2u188_40 1D98                             i2u196_41 1242  
                           i2u188_41 1D94                             i2u197_40 1258  
                           i2u189_40 2182                             i2u197_41 1254  
                           i2u189_41 217E                             i2u198_40 1284  
                           i2u198_41 1280                             i2u199_40 1296  
                           i2u199_41 1292                         ??_clear_text 0029  
                           _POSTINC0 0FEE                             _POSTINC1 0FE6  
                  _STATUS_TEMPORAIRE 0061               __end_of_wait_status_ok 2168  
                        ??_d1command 0026                            fp__tache1 0000  
                          fp__tache2 0000                            fp__tache3 0000  
                          fp__tache4 0000                            fp__tache5 0000  
                          fp__tache6 0000                           ?_draw_char 0021  
                        ??_d2command 0027                           ?_draw_hex8 0021  
                         _ADCON0bits 0FC2                          _draw_string 21DC  
                       _Val_sem_rxtx 0046                             _TP_appui 0066  
                        _INTCON2bits 0FF1                      ??_delai_us_char 0021  
                 __end_of_clear_text 24E8                           ?_init_rxtx 0021  
                         ?_goto_lico 0029                           _ANCON0bits 0F25  
                         _ANCON1bits 0F24                             __Hrparam 0000  
                           __Lrparam 0000     __end_of_initialisation_afficheur 1CC2  
                    ?_wait_status_ok 0021  initialisation_afficheur@error_count 0029  
            _fonction_d_interruption 0008                      _lecture_normale 1CC2  
                           _batterie 0074                      ___lwdiv@divisor 0023  
   __end_of_initialisation_des_ports 255A                      ___lwdiv@counter 0027  
                           __ptext10 1810                             __ptext11 1978  
                           __ptext20 1BDE                             __ptext12 25D0  
                           __ptext21 25F4                             __ptext13 2168  
                           __ptext30 2250                             __ptext22 2474  
                           __ptext14 108C                             __ptext31 2310  
                           __ptext23 2618                             __ptext15 2432  
                           __ptext32 2658                             __ptext24 2078  
                           __ptext16 1DA2                             __ptext33 2672  
                           __ptext25 21DC                             __ptext17 1F38  
                           __ptext34 20F0                             __ptext26 1FE8  
                           __ptext18 1E74                             __ptext35 255A  
                           __ptext27 22BE                             __ptext19 235E  
                           __ptext36 0000                             __ptext28 24AE  
                           __ptext29 24E8                             isa$xinst 0000  
                           _tp_delai 25D0                    ??_check_status_ok 0021  
                        ??_draw_char 0028                          ??_draw_hex8 0028  
                      ??_write_c_aff 0021                        ??_write_d_aff 0021  
                         _INTCONbits 0FF2                             tache2@hx 002E  
                           tache2@hy 0030                             tache2@ix 002A  
                           tache2@iy 002C                             tache2@lx 002F  
                           tache2@ly 0031                          ??_init_rxtx 0021  
                        ??_goto_lico 002A                             intlevel2 0000  
                           plot1@add 002C                       goto_lico@ligne 002C  
            __end_of_lecture_normale 1DA2                         d1command@cmd 0025  
                       d1command@res 0027            ??_fonction_d_interruption 0032  
                       tp_delai@itpd 0021                          d1command@d1 0026  
                __end_of_write_c_aff 268C                  __end_of_write_d_aff 2672  
                       d2command@cmd 0026            ?_initialisation_afficheur 0021  
                       d2command@res 0028                 wait_status_ok@status 0023  
                        d2command@d1 0027                          d2command@d2 0025  
